(dp0
Vneo b2 intact
p1
I2
sVguardian derision
p2
I10
sVneo d1 radiant
p3
I50
sVtwin vipers wraith receivers
p4
I13
sVtwin vipers wraith link
p5
I9
sVoberon prime neuroptics
p6
I13
sVloki prime systems
p7
I166
sVfrostbite
p8
I5
sVvirtuos null
p9
I40
sVsheev blade
p10
I15
sVpyrana prime set
p11
I86
sVlith n3 exceptional
p12
I0
sVhelminth ferocity
p13
I0
sVrubedo-lined barrel
p14
I4
sVaxi v5 exceptional
p15
I0
sVaxi o2 exceptional
p16
I0
sVhelios prime blueprint
p17
I3
sVshotgun savvy
p18
I6
sVaxi b1 flawless
p19
I0
sVarcane coil mag helmet
p20
I196
sVfatal teleport
p21
I14
sVcrimson dervish
p22
I11
sVspare parts
p23
I3
sVsheev blueprint
p24
I8
sVnami skyla prime blade
p25
I16
sVlith v1 flawless
p26
I0
sVinvestigator
p27
I0
sVelytron wings
p28
I0
sVscindo prime set
p29
I67
sVaxi v2 radiant
p30
I40
sVrising skill
p31
I0
sVpistol riven mod (veiled)
p32
I20
sVwhirlwind
p33
I5
sVpilfering swarm
p34
I15
sVfomorian accelerant
p35
I12
sVlith z1 exceptional
p36
I0
sVprimed fever strike
p37
I84
sVaxi h1 intact
p38
I0
sVexodia force
p39
I97
sVastral autopsy
p40
I114
sVtwirling spire
p41
I9
sVfurax wraith set
p42
I18
sVneo t1 radiant
p43
I0
sVarcane phoenix ember helmet
p44
I71
sVstatic alacrity (staticor)
p45
I9
sVheavy caliber
p46
I17
sVlith k1 intact
p47
I0
sVspring-loaded blade
p48
I139
sVbanshee prime neuroptics
p49
I2
sVlatron prime stock
p50
I9
sVmortal conduct
p51
I10
sVreaping spiral
p52
I2
sVhydraulic crosshairs
p53
I4
sVlith c1 exceptional
p54
I0
sVmedium karkina
p55
I0
sVmedium yogwun
p56
I0
sVrift strike
p57
I6
sVneo b5 flawless
p58
I0
sVkinetic ricochet
p59
I1
sVmeso c2 flawless
p60
I0
sVpower drift
p61
I5
sVtainted clip
p62
I2
sVswirling tiger
p63
I2
sVagility drift
p64
I3
sVvectis prime barrel
p65
I10
sVlato vandal receiver
p66
I10
sVaxi k3 flawless
p67
I0
sVgleaming blight
p68
I12
sVbraton vandal receiver
p69
I15
sVenergy amplifier
p70
I47
sVcreeping bullseye
p71
I3
sVshell shock
p72
I69
sVneo z1 exceptional
p73
I0
sVprimed bane of corrupted
p74
I51
sVprisma gorgon
p75
I71
sVaxi n2 exceptional
p76
I0
sVgrineer sealab centrifuge scene
p77
I2
sVlink armor
p78
I9
sVice spring
p79
I4
sVnekros prime set
p80
I107
sVsaryn prime chassis
p81
I100
sVpressurized magazine
p82
I85
sVamesha systems
p83
I0
sVaxi e1 radiant
p84
I0
sVhollow point
p85
I3
sVcyan ayatan star
p86
I1
sVbronco prime blueprint
p87
I2
sVsmall tralok
p88
I0
sVvalana ayatan sculpture
p89
I10
sVneo v7 flawless
p90
I0
sVphaedra barrel
p91
I17
sVember prime chassis
p92
I34
sVitzal set
p93
I78
sVsybaris prime set
p94
I25
sVshimmering blight
p95
I5
sVneo n7 exceptional
p96
I0
sVvaykor sydon
p97
I48
sVvital sense
p98
I2
sVaxi k3 exceptional
p99
I0
sVash prime chassis
p100
I4
sVlith s7 radiant
p101
I11
sVaxi v4 exceptional
p102
I0
sVaxi s2 intact
p103
I11
sVscavenge
p104
I4
sVneo n3 flawless
p105
I0
sVgorgon wraith receiver
p106
I4
sVloki prime blueprint
p107
I6
sVzenurik lens
p108
I8
sVlatron wraith blueprint
p109
I15
sVlasting sting
p110
I5
sVaxi t1 radiant
p111
I30
sVvalkyr prime neuroptics
p112
I4
sVstinging thorn
p113
I17
sVrepeater clip
p114
I7
sVneo v5 exceptional
p115
I0
sVmeso n3 flawless
p116
I0
sVmeso z1 intact
p117
I11
sVcernos prime set
p118
I23
sVflechette
p119
I6
sVquick return
p120
I6
sVaugur pact
p121
I2
sVadept surge
p122
I0
sVtectonic fracture
p123
I14
sVhunter munitions
p124
I9
sVstrun wraith stock
p125
I22
sVsoul survivor
p126
I17
sVaxi k1 exceptional
p127
I0
sVneo h1 radiant
p128
I25
sVsmite grineer
p129
I10
sVakbolto prime link
p130
I3
sVprimed heavy trauma
p131
I41
sVlimbo prime blueprint
p132
I8
sVprimed pistol mutation
p133
I109
sVarcane hemlock saryn helmet
p134
I66
sVair recon
p135
I5
sVlith f1 exceptional
p136
I0
sVtwin vipers wraith set
p137
I40
sVexpel corrupted
p138
I41
sVmeso s5 exceptional
p139
I0
sVhydroid prime systems
p140
I34
sVsafeguard switch
p141
I15
sVarcane chorus banshee helmet
p142
I333
sVloose hatch
p143
I0
sVmeso d2 flawless
p144
I0
sVserration
p145
I1
sVsilva & aegis prime guard
p146
I14
sVmartial fury
p147
I0
sVmeso c1 exceptional
p148
I0
sVammo case
p149
I5
sVmedium mortus lungfish
p150
I0
sVbleeding willow
p151
I5
sVtear azurite
p152
I1
sVambush optics (rubico)
p153
I8
sVcernos prime grip
p154
I5
sVnatural talent
p155
I5
sVacid shells
p156
I12
sVperpetual vortex
p157
I20
sVorthos prime blade
p158
I4
sVsingularity
p159
I0
sVbuzz kill
p160
I15
sVeagle eye
p161
I2
sVneo k1 exceptional
p162
I0
sVaxi t1 flawless
p163
I0
sVcernos prime lower limb
p164
I14
sVmeso n4 radiant
p165
I20
sVcleanse infested
p166
I3
sVfired up
p167
I2
sVsnipetron vandal receiver
p168
I9
sVneo b1 flawless
p169
I0
sVvauban prime blueprint
p170
I17
sVexodia might
p171
I119
sVblade of truth
p172
I24
sVpounce
p173
I3
sVpistol scavenger
p174
I6
sVprimed shotgun ammo mutation
p175
I100
sVamaryn's retreat scene
p176
I80
sVlimbo prime chassis
p177
I28
sVpistol amp
p178
I4
sVballistica prime lower limb
p179
I6
sVneo s7 radiant
p180
I0
sVnyx prime neuroptics
p181
I48
sVmuzzle flash
p182
I14
sVrevenge
p183
I1
sVstreamline
p184
I2
sVsearing leap
p185
I0
sVmeso b1 exceptional
p186
I0
sVscimitar engines
p187
I39
sVwyrm prime set
p188
I119
sVneo s2 intact
p189
I25
sVaxi k3 radiant
p190
I0
sVdiamond skin
p191
I2
sVmeso s4 flawless
p192
I0
sVneo s7 exceptional
p193
I0
sVrathbone set
p194
I50
sVvoltaic lance
p195
I0
sVbite
p196
I49
sVorvius disc
p197
I1
sVarcane gambit vauban helmet
p198
I60
sVshocking speed
p199
I16
sVlith z1 radiant
p200
I10
sVdraining gloom
p201
I0
sVprova vandal
p202
I159
sVamesha wings
p203
I0
sVaxi s2 exceptional
p204
I0
sVmeso k1 radiant
p205
I0
sVspring-loaded chamber
p206
I8
sVtempo royale
p207
I25
sVlife strike
p208
I23
sVitzal wings
p209
I45
sVbrutal tide
p210
I4
sVtear gas
p211
I0
sVhikou prime blueprint
p212
I4
sVsilva & aegis prime set
p213
I24
sVaxi a1 radiant
p214
I32
sVrazor shot
p215
I2
sVgalatine prime blade
p216
I2
sVmaglev
p217
I3
sVmutalist nav coordinates
p218
I8
sVantitoxin
p219
I3
sVlith s3 exceptional
p220
I0
sVaxi e2 intact
p221
I8
sVquick thinking
p222
I14
sVmagus elevate
p223
I45
sVsicarus prime blueprint
p224
I8
sVcarrier prime carapace
p225
I15
sVvenom dose
p226
I14
sVaxi v3 exceptional
p227
I0
sVexplosive demise
p228
I0
sVhornet strike
p229
I3
sVlith h2 intact
p230
I3
sVlith s4 flawless
p231
I0
sVlatron wraith barrel
p232
I18
sVmeso v2 radiant
p233
I30
sVmagus nourish
p234
I50
sVprecision munition
p235
I0
sVbane of corpus
p236
I5
sVcernos prime string
p237
I3
sVrazorwing blitz
p238
I16
sVneo m1 flawless
p239
I0
sVflux overdrive
p240
I1
sVvaya ayatan sculpture
p241
I0
sVarcane aurora frost helmet
p242
I69
sVaxi r1 radiant
p243
I95
sVsuda's datascape scene
p244
I0
sVeuphona prime blueprint
p245
I1
sVswift deth
p246
I4
sVtrick mag
p247
I5
sVneo k1 flawless
p248
I0
sVballistica prime upper limb
p249
I3
sVenduring strike
p250
I7
sVexpel grineer
p251
I4
sVvirtuos fury
p252
I43
sVflow
p253
I2
sVprimed continuity
p254
I63
sVtwin vipers wraith blueprint
p255
I13
sVpower throw
p256
I1
sVnami skyla prime set
p257
I58
sVtiberon prime blueprint
p258
I5
sVcreeping terrify
p259
I15
sVheart nyth
p260
I3
sVsnipetron vandal set
p261
I51
sVsanctuary
p262
I4
sVneo f1 exceptional
p263
I0
sVfire fright
p264
I14
sVlex prime blueprint
p265
I2
sVergo's boardroom scene
p266
I100
sVbreach loader
p267
I15
sVunleashed
p268
I4
sVneo f1 intact
p269
I29
sVarcane pulse volt helmet
p270
I188
sVfinishing touch
p271
I5
sVmeso c3 radiant
p272
I25
sVgrineer shipyards manufactory scene
p273
I106
sVhunter recovery
p274
I2
sVrending wind
p275
I0
sVrathbone head
p276
I15
sVneo s1 flawless
p277
I0
sVtiberon prime receiver
p278
I2
sVaxi h2 radiant
p279
I30
sVesher devar
p280
I1
sVstaggering shield
p281
I13
sVfanged fusillade
p282
I9
sVjet stream
p283
I15
sVgalatine prime blueprint
p284
I23
sVarcane fury
p285
I39
sVsearing steel
p286
I98
sVdakra prime blueprint
p287
I4
sVneo n4 radiant
p288
I0
sVprimed ravage
p289
I77
sVhysterical fixation
p290
I0
sVpummel
p291
I3
sVgnashing payara
p292
I2
sVlith h2 flawless
p293
I0
sVsilva & aegis prime blade
p294
I4
sVclashing forest
p295
I3
sVaxi v5 intact
p296
I10
sVneo n5 radiant
p297
I45
sVaxi v2 intact
p298
I16
sVweeping wounds
p299
I61
sVmorphic transformer
p300
I9
sVmeso e1 radiant
p301
I44
sVtitanic rumbler
p302
I16
sVwarrior
p303
I6
sVexodia contagion
p304
I40
sVscimitar avionics
p305
I10
sVextend
p306
I4
sVincendiary coat
p307
I4
sVburston prime barrel
p308
I5
sVpath of statues
p309
I16
sVneo a1 exceptional
p310
I0
sVaxi e2 flawless
p311
I0
sVfulmination
p312
I34
sVmeso s4 exceptional
p313
I0
sVloki prime neuroptics
p314
I12
sVfinal harbinger
p315
I19
sVcorpus ship freight scene
p316
I1
sVprotect
p317
I5
sVscattering inferno
p318
I20
sVaxi c1 intact
p319
I90
sVmeso s3 intact
p320
I100
sVburning wasp
p321
I2
sVbraton vandal stock
p322
I70
sVheavy warhead
p323
I9
sVpeaceful provocation
p324
I18
sVneo h1 intact
p325
I6
sVvigilante armaments
p326
I9
sVloot detector
p327
I17
sVaxi h3 exceptional
p328
I0
sVreaper prime blade
p329
I9
sVharkonar scope
p330
I4
sVlith c2 intact
p331
I2
sVaxi l2 flawless
p332
I0
sVtrinity prime blueprint
p333
I10
sVtargeting subsystem
p334
I9
sVanimal instinct
p335
I4
sVneo e1 exceptional
p336
I0
sVmeso m1 exceptional
p337
I0
sVaxi c1 exceptional
p338
I0
sVsudden justice
p339
I8
sVsuppress
p340
I4
sVlatron prime blueprint
p341
I5
sVdouble tap
p342
I7
sVash prime blueprint
p343
I8
sVmeso c1 intact
p344
I18
sVneo v6 flawless
p345
I0
sVair thrusters
p346
I0
sVprisma angstrum
p347
I108
sVsweeping serration
p348
I21
sVvenka prime blueprint
p349
I3
sVsavior decoy
p350
I12
sVelytron harness
p351
I20
sVlith n2 exceptional
p352
I0
sVfluctus set
p353
I76
sVaxi v5 radiant
p354
I0
sVaxi v6 flawless
p355
I0
sVvampire leech
p356
I15
sVaxi e1 intact
p357
I0
sVlightning dash
p358
I6
sVrecuperate
p359
I0
sVneo k1 radiant
p360
I0
sVlarge cuthol
p361
I3
sVunairu lens
p362
I4
sVxiphos set
p363
I0
sVaxi k1 radiant
p364
I0
sVmeso c3 intact
p365
I9
sVhunhow's datascape scene
p366
I44
sVneo n1 intact
p367
I73
sVsignal flare
p368
I0
sVneo n7 intact
p369
I10
sVgrinloked
p370
I10
sVlith v3 flawless
p371
I0
sVprisma tetra
p372
I113
sVmeso f1 flawless
p373
I0
sVarcane storm volt helmet
p374
I246
sVlightning rod
p375
I2
sVsecura dual cestra
p376
I59
sVrending strike
p377
I3
sVash prime neuroptics
p378
I4
sVneo v6 intact
p379
I5
sVaxi v1 intact
p380
I11
sVlith v3 radiant
p381
I0
sVaxi v2 exceptional
p382
I0
sVembedded catalyzer
p383
I9
sVkarak wraith blueprint
p384
I14
sVkogake prime set
p385
I73
sVparis prime grip
p386
I3
sVlith b1 radiant
p387
I41
sVboltor prime set
p388
I118
sVfrost prime chassis
p389
I20
sVneo v6 radiant
p390
I25
sVbraton vandal set
p391
I211
sVstalking fan
p392
I13
sVoberon prime set
p393
I68
sVlith b2 intact
p394
I4
sVoberon prime blueprint
p395
I2
sVrelentless assault
p396
I0
sVprisma dual cleavers
p397
I122
sVtoxic blight
p398
I18
sVrhino prime systems
p399
I10
sVneo v7 intact
p400
I8
sVaxi n4 radiant
p401
I28
sVarcane precision
p402
I16
sVlarge goopolla
p403
I3
sVgladiator aegis
p404
I5
sVkronen prime blade
p405
I27
sVlarge karkina
p406
I5
sVseeking shuriken
p407
I13
sVtwin vipers wraith barrels
p408
I19
sVhunt
p409
I4
sVodonata prime set
p410
I45
sVchaos sphere
p411
I24
sVpistol pestilence
p412
I6
sVaxi o2 intact
p413
I5
sVcatalyzer link
p414
I4
sVcolor key scene
p415
I75
sVbroad eye
p416
I4
sVkuva fortress crevice scene
p417
I4
sVprimed flow
p418
I84
sVhallowed eruption
p419
I17
sVaxi c1 radiant
p420
I45
sVpurging slash
p421
I0
sVanti-flak plating
p422
I0
sVbore
p423
I17
sVterminal velocity
p424
I4
sVneo s6 flawless
p425
I0
sVtiberon prime set
p426
I55
sVastral twilight
p427
I4
sVlucky shot
p428
I0
sVneo n7 flawless
p429
I0
sVnano-applicator
p430
I240
sVmeso v3 exceptional
p431
I0
sVsinking talon
p432
I3
sVenergy field
p433
I2
sVfatal attraction
p434
I4
sVember prime blueprint
p435
I88
sVmeso c3 exceptional
p436
I0
sVblood rush
p437
I13
sVsword alone
p438
I0
sVdestreza prime handle
p439
I10
sVshotgun amp
p440
I11
sVmeso f3 radiant
p441
I44
sVgreedy pull
p442
I25
sVshocking touch
p443
I2
sVtwitch
p444
I10
sVvauban prime chassis
p445
I23
sVprisma skana
p446
I96
sVlith a2 radiant
p447
I20
sVmedium mawfish
p448
I0
sVhoming fang
p449
I3
sVpistol gambit
p450
I2
sVhigh voltage
p451
I63
sVshrapnel shot
p452
I4
sVvalkyr prime set
p453
I70
sVaugur accord
p454
I4
sVsoma prime stock
p455
I88
sVneo t1 exceptional
p456
I0
sVseeker
p457
I2
sVsnipetron vandal stock
p458
I36
sVlith v2 flawless
p459
I0
sVvitality
p460
I33335
sVaxi o3 exceptional
p461
I0
sVsafeguard
p462
I17
sViron vault
p463
I31
sVmeso t2 radiant
p464
I0
sVrejuvenation
p465
I9
sVlith h2 radiant
p466
I12
sVrazor munitions
p467
I0
sVballistica prime receiver
p468
I3
sVblazing steel
p469
I18
sVarrow mutation
p470
I1
sVspira prime blueprint
p471
I1
sVankyros prime gauntlet
p472
I19
sVakbolto prime blueprint
p473
I2
sVlith s7 exceptional
p474
I0
sVfury
p475
I2
sVaxi b1 exceptional
p476
I0
sVeuphona prime receiver
p477
I27
sVmag prime blueprint
p478
I60
sVneo n4 flawless
p479
I0
sVlith v4 flawless
p480
I0
sVmeso m1 radiant
p481
I44
sVdirected convergence
p482
I12
sVlith v2 intact
p483
I35
sVbroken war hilt
p484
I39
sVaxi s2 flawless
p485
I0
sVhealing return
p486
I10
sVaxi n1 radiant
p487
I45
sVsmall mawfish
p488
I0
sVpiercing navigator
p489
I19
sVhydroid prime neuroptics
p490
I10
sVlatron wraith receiver
p491
I18
sVsurging dash
p492
I15
sVmirage prime chassis
p493
I3
sVlith m1 exceptional
p494
I0
sVexodia epidemic
p495
I38
sVbo prime set
p496
I95
sVember prime neuroptics
p497
I16
sVballistica prime set
p498
I34
sVhydraulic barrel
p499
I30
sVcleanse corpus
p500
I4
sVnoble cadence
p501
I0
sVhelios prime set
p502
I24
sVlethal torrent
p503
I4
sVmeso f2 exceptional
p504
I0
sVneo l1 intact
p505
I6
sVbeguiling lantern
p506
I15
sVlarge mawfish
p507
I0
sVpacifying bolts
p508
I28
sVmeso m1 flawless
p509
I0
sVlith s3 intact
p510
I0
sVneo b3 exceptional
p511
I0
sVmeso b1 flawless
p512
I0
sVvoltaic strike
p513
I83
sVmeso v2 exceptional
p514
I0
sVnikana prime blade
p515
I45
sVarcane healing
p516
I5
sVanticipation
p517
I0
sVneo v5 flawless
p518
I0
sVcounter pulse
p519
I24
sVarcane resistance
p520
I4
sVmeso v5 radiant
p521
I15
sVmeso t1 radiant
p522
I0
sVblind shot
p523
I7
sVfast hands
p524
I4
sVkarak wraith receiver
p525
I16
sVakbolto prime barrel
p526
I3
sVneo f1 flawless
p527
I0
sVaxi b2 exceptional
p528
I0
sVquasar drill
p529
I11
sVneo f1 radiant
p530
I23
sVvigilante fervor
p531
I5
sVescape velocity
p532
I17
sVreaping chakram
p533
I17
sVakbronco prime blueprint
p534
I1
sVprimed bane of grineer
p535
I58
sVlie in wait
p536
I0
sVgladiator resolve
p537
I5
sVamesha harness
p538
I0
sVspira prime pouch
p539
I19
sVdig
p540
I6
sVboltor prime barrel
p541
I12
sVaxi k1 intact
p542
I10
sVtactical pump
p543
I4
sVlith a2 flawless
p544
I0
sVbullet dance
p545
I38
sVnekros prime neuroptics
p546
I21
sVneutron star
p547
I17
sVcarrier prime blueprint
p548
I4
sVayr ayatan sculpture
p549
I8
sVmalicious raptor
p550
I9
sVconstitution
p551
I9
sVagkuza guard
p552
I15
sVlith c2 radiant
p553
I0
sVlith g2 exceptional
p554
I23
sVnorth wind
p555
I2
sVsuperior defenses
p556
I10
sVguardian
p557
I8
sVstrun wraith set
p558
I95
sVlith s5 intact
p559
I19
sVcarrier prime systems
p560
I4
sVmeso v3 radiant
p561
I30
sVneo b3 radiant
p562
I25
sVenemy radar
p563
I13
sVmag prime chassis
p564
I9
sVaxi n3 exceptional
p565
I0
sVignis wraith blueprint
p566
I4
sVresonance
p567
I18
sVneo v5 intact
p568
I3
sVmeso n1 exceptional
p569
I0
sVmadurai lens
p570
I10
sVdera vandal barrel
p571
I21
sVimperator vandal receiver
p572
I120
sVmeso v3 flawless
p573
I0
sVsybaris prime blueprint
p574
I3
sVjagged edge
p575
I3
sVneo s5 flawless
p576
I0
sVkarak wraith set
p577
I70
sVaxi o2 radiant
p578
I0
sVautomatic trigger
p579
I4
sVravage
p580
I4
sVlith b1 intact
p581
I15
sVregen
p582
I4
sVfireball frenzy
p583
I15
sVmeso v5 flawless
p584
I0
sVefficient transferral
p585
I7
sVneo v4 radiant
p586
I0
sVduality
p587
I19
sVflak shot
p588
I0
sVprimed heated charge
p589
I86
sVarcane acceleration
p590
I11
sVfang prime blueprint
p591
I2
sVaxi b2 flawless
p592
I0
sVbane of infested
p593
I8
sVnekros prime chassis
p594
I4
sVlarge tralok
p595
I0
sVaxi h1 flawless
p596
I0
sVmolecular conversion
p597
I0
sVteshin's refuge scene
p598
I400
sVprize kill
p599
I0
sVgladiator vice
p600
I67
sVvulpine mask
p601
I4
sVancient fusion core
p602
I41
sVmesa\u2019s waltz
p603
I15
sVarcane barrier
p604
I18
sVcarving mantis
p605
I7
sVempowered blades
p606
I54
sVeleventh storm
p607
I4
sVneo n3 intact
p608
I10
sVsacrifice
p609
I31
sVaugur secrets
p610
I90
sVaxi e1 exceptional
p611
I0
sVbanshee prime blueprint
p612
I3
sVhikou prime stars
p613
I9
sVfang prime set
p614
I10
sVicy avalanche
p615
I19
sVfurax wraith left gauntlet
p616
I7
sVkappa beacon
p617
I61
sVsawtooth clip
p618
I4
sVlow current leap
p619
I0
sVelemental sandstorm
p620
I19
sVcorpus gas city conduit scene
p621
I93
sVeidolon zenurik lens
p622
I83
sVlethal momentum
p623
I4
sVexpel infested
p624
I4
sVspinning needle
p625
I2
sVlith n3 radiant
p626
I17
sViron phoenix
p627
I1
sVthe perrin sequence augment mod
p628
I15
sVaxi n4 flawless
p629
I0
sVneo n6 intact
p630
I0
sVitzal systems
p631
I45
sVprisma grakata
p632
I116
sVabating link
p633
I16
sVmeso t2 flawless
p634
I0
sVmaim
p635
I9
sVneo v1 exceptional
p636
I0
sVsure shot
p637
I4
sVore gaze
p638
I16
sVlarge sharrac
p639
I5
sVvigilante pursuit
p640
I4
sVaxi n5 radiant
p641
I7
sVnegation swarm
p642
I18
sVmeso s2 intact
p643
I84
sVmeso s1 intact
p644
I0
sVsteady hands
p645
I2
sVlith s2 exceptional
p646
I0
sVash prime systems
p647
I71
sVlith b1 exceptional
p648
I0
sVaxi b1 intact
p649
I0
sVretrieve
p650
I0
sVquanta vandal
p651
I101
sVwyrm prime carapace
p652
I22
sVaxi s2 radiant
p653
I40
sVneo h1 exceptional
p654
I0
sVphaedra stock
p655
I19
sVnova prime set
p656
I323
sVmalignant force
p657
I9
sVlith b3 intact
p658
I9
sVdestreza prime blade
p659
I19
sVlith s5 exceptional
p660
I0
sVaxi v4 flawless
p661
I0
sVcorrosive projection
p662
I12
sVlith s6 radiant
p663
I0
sVarcane essence loki helmet
p664
I151
sVprisma obex
p665
I145
sVeject magazine
p666
I31
sVaxi a1 flawless
p667
I0
sVreflect
p668
I2
sVneo v6 exceptional
p669
I0
sVsah ayatan sculpture
p670
I10
sVexodia valor
p671
I68
sVimperator vandal set
p672
I69
sVhysterical assault
p673
I17
sVglaive prime set
p674
I118
sVlex prime barrel
p675
I1
sVshattering justice
p676
I15
sVhammer shot
p677
I7
sVboltor prime receiver
p678
I18
sVsmall mortus lungfish
p679
I0
sVstockpiled blight
p680
I11
sVnaramon transmute core
p681
I6
sVaxi n2 radiant
p682
I30
sVresonating quake
p683
I17
sVsavage silence
p684
I16
sVarcane agility
p685
I4
sVlith b2 flawless
p686
I0
sVneo n2 intact
p687
I35
sVcutting edge
p688
I4
sVlith s3 flawless
p689
I0
sVaklex prime set
p690
I60
sVlith a1 flawless
p691
I0
sVbanshee prime systems
p692
I15
sVreinforcing stomp
p693
I16
sVreflex draw
p694
I25
sVthief's wit
p695
I2
sVlarge khut-khut
p696
I0
sVarcane meridian trinity helmet
p697
I88
sVvermilion storm
p698
I10
sVpeculiar bloom
p699
I19
sVlasting purity
p700
I19
sVshield charger
p701
I1
sVberserker
p702
I19
sVprism guard
p703
I0
sVmagnum force
p704
I3
sVinfiltrate
p705
I19
sVquick charge
p706
I0
sVgemini cross
p707
I2
sVakbolto prime receiver
p708
I30
sVcyclone kraken
p709
I56
sVodonata prime systems
p710
I3
sVchilling globe
p711
I14
sVelectrified barrel
p712
I46
sVpistol ammo mutation
p713
I3
sVlith c2 exceptional
p714
I0
sVmeso d2 exceptional
p715
I0
sVaxi v2 flawless
p716
I0
sVcorpus ice planet wreckage scene
p717
I0
sVarcane ultimatum
p718
I13
sVmelee riven mod (veiled)
p719
I23
sVregenerative molt
p720
I14
sVrecover
p721
I0
sVprimed chamber
p722
I0
sVneo n3 exceptional
p723
I0
sVmeso s3 radiant
p724
I45
sVmeso n5 intact
p725
I9
sVmeso o1 flawless
p726
I0
sVprimed pistol gambit
p727
I103
sVwarm coat
p728
I4
sVlatron prime receiver
p729
I8
sVhunter synergy
p730
I3
sVmeso n2 exceptional
p731
I0
sVarcane backdraft ember helmet
p732
I85
sVrifle aptitude
p733
I10
sVmachete wraith
p734
I130
sVmagazine extension
p735
I6
sVvile acceleration
p736
I12
sVlith s1 exceptional
p737
I0
sVmeso o1 radiant
p738
I0
sVzephyr prime chassis
p739
I5
sVsmall yogwun
p740
I0
sVspoiled strike
p741
I4
sVimperator vandal blueprint
p742
I2
sVhikou prime pouch
p743
I25
sVloki prime chassis
p744
I56
sVlith b1 flawless
p745
I0
sVmeso v4 flawless
p746
I0
sVaxi g1 radiant
p747
I0
sVrising storm
p748
I18
sVkavasa prime collar band
p749
I3
sVhealth conversion
p750
I85
sVheavy impact
p751
I2
sVneo d1 intact
p752
I25
sVdouble-barrel drift
p753
I119
sVadrenaline boost
p754
I10
sVneo l1 exceptional
p755
I0
sVjolt
p756
I86
sVrhino prime blueprint
p757
I246
sVnekros prime systems
p758
I28
sVaxi v7 radiant
p759
I20
sVstormbringer
p760
I3
sVrifle scavenger
p761
I4
sVneo l1 flawless
p762
I0
sVxiphos fuselage
p763
I0
sVcentaur set
p764
I0
sVarcane consequence
p765
I3
sVdual decurion barrel
p766
I16
sVsinister reach
p767
I3
sVaxi v5 flawless
p768
I0
sVmeso t1 flawless
p769
I0
sVmaximum capacity
p770
I0
sVtiberon prime stock
p771
I13
sVhikou prime set
p772
I89
sVassimilate
p773
I27
sVvaykor marelok
p774
I38
sVvexing retaliation
p775
I14
sVaxi n5 exceptional
p776
I0
sVmeso n5 radiant
p777
I22
sVmarquise veridos
p778
I2
sVneo n2 radiant
p779
I40
sVaxi v3 flawless
p780
I0
sVfrost prime systems
p781
I22
sVfragor prime blueprint
p782
I5
sVmaster thief
p783
I1
sVneo s3 exceptional
p784
I0
sVkilling blow
p785
I3
sVneo e1 flawless
p786
I0
sVcorroding barrage
p787
I24
sVradiant finish
p788
I17
sVmeso o1 exceptional
p789
I0
sVwyrm prime systems
p790
I30
sVmeso s3 flawless
p791
I0
sVcentaur blade
p792
I17
sVaxi v7 intact
p793
I9
sVfrigid blast
p794
I16
sVvolt prime set
p795
I159
sVnova prime blueprint
p796
I23
sVnami skyla prime handle
p797
I3
sVaxi v1 radiant
p798
I0
sVorvius blade
p799
I3
sVballistica prime string
p800
I5
sVinfected clip
p801
I2
sVsmall karkina
p802
I2
sVsoma prime barrel
p803
I14
sVneo b3 flawless
p804
I0
sVneo s1 radiant
p805
I0
sVnew loka augment mod
p806
I15
sVneo n4 intact
p807
I11
sVshotgun ammo mutation
p808
I2
sVmedi-ray
p809
I30
sVcryo rounds
p810
I2
sVenhanced vitality
p811
I4
sVoverview
p812
I9
sVhell's chamber
p813
I2
sVfeathered arrows
p814
I20
sVmeso e1 intact
p815
I20
sVvulcan blitz
p816
I9
sVaxi c2 radiant
p817
I0
sVmeso f1 exceptional
p818
I0
sVstretch
p819
I1
sVonorix set
p820
I0
sVmeso s1 radiant
p821
I0
sVaxi o1 exceptional
p822
I0
sVreaper prime blueprint
p823
I10
sVcorvas stock
p824
I15
sVbo prime handle
p825
I16
sVakbronco prime set
p826
I10
sVlith h2 exceptional
p827
I0
sVpiv ayatan sculpture
p828
I0
sVself destruct
p829
I4
sVlith g1 radiant
p830
I0
sVmolten impact
p831
I2
sVvengeful revenant
p832
I48
sVfurax wraith right gauntlet
p833
I8
sVneo n5 flawless
p834
I0
sVaccelerated deflection
p835
I1
sVlith k1 flawless
p836
I0
sVexplosive legerdemain
p837
I26
sVsecondary wind
p838
I7
sVsundering weave
p839
I1
sVinfested impedance
p840
I4
sVstand united
p841
I19
sVmeso t1 exceptional
p842
I0
sVarcane vespa nyx helmet
p843
I333
sVlith m1 radiant
p844
I30
sVaxi a2 flawless
p845
I0
sVsprint boost
p846
I18
sVpyroclastic flow
p847
I14
sVaklex prime link
p848
I41
sVmeso n1 intact
p849
I16
sVloyal companion
p850
I4
sVsoft hands
p851
I20
sVarcane momentum
p852
I4
sVthunderbolt
p853
I1
sVburston prime blueprint
p854
I2
sVrhino prime neuroptics
p855
I34
sVmeso h1 intact
p856
I10
sVrathbone handle
p857
I13
sVagkuza handle
p858
I18
sVbounty hunter
p859
I0
sVeidolon vazarin lens
p860
I86
sVpoisonous sting
p861
I15
sVlith s2 intact
p862
I11
sVdera vandal blueprint
p863
I10
sVtactical retreat
p864
I12
sVlith k1 exceptional
p865
I0
sVaxi a3 radiant
p866
I40
sVsecura penta
p867
I48
sVsurplus diverters
p868
I0
sVafterburner
p869
I2
sVlith v4 radiant
p870
I10
sVenemy sense
p871
I5
sVmeso o2 radiant
p872
I0
sVsmall glappid
p873
I3
sVvolt prime chassis
p874
I17
sVpack leader
p875
I4
sVorthos prime set
p876
I13
sVcentaur aegis
p877
I18
sVimpaler munitions
p878
I0
sVdestreza prime blueprint
p879
I6
sVwyrm prime blueprint
p880
I5
sVimperator vandal barrel
p881
I8
sVlimbo prime systems
p882
I4
sVvectis prime blueprint
p883
I4
sVstand ground
p884
I0
sVcollision force
p885
I3
sVdual kamas prime blade
p886
I69
sVneo s1 intact
p887
I15
sVsnipetron vandal blueprint
p888
I6
sVmelee prowess
p889
I4
sVvacuum
p890
I3
sVmeso n5 exceptional
p891
I0
sVneo n5 intact
p892
I23
sVhastened deflection
p893
I5
sVember prime set
p894
I186
sVmantis engines
p895
I7
sVlith v2 radiant
p896
I10
sVneo s6 radiant
p897
I0
sVboar prime set
p898
I99
sVaxi h3 radiant
p899
I0
sVpool of life
p900
I18
sVdead eye
p901
I16
sVmeso s2 radiant
p902
I30
sVenergy inversion
p903
I9
sVkogake prime gauntlet
p904
I12
sVneo s3 radiant
p905
I30
sVhelios prime systems
p906
I3
sVagkuza blade
p907
I26
sVneo s3 flawless
p908
I0
sVmeso z1 radiant
p909
I9
sVvirtuos tempo
p910
I60
sVkronen prime handle
p911
I5
sVburston prime set
p912
I10
sVsupra vandal
p913
I135
sVvile precision
p914
I2
sVendurance drift
p915
I4
sVsudden impact
p916
I4
sVvelocitus receiver
p917
I15
sVneo t1 flawless
p918
I0
sVaxi h3 intact
p919
I5
sVlith s2 radiant
p920
I0
sVmeso c2 radiant
p921
I35
sVitzal harness
p922
I43
sVaxi b1 radiant
p923
I0
sVbronco prime receiver
p924
I2
sVpush & pull
p925
I0
sVentropy flight
p926
I16
sVlith s1 intact
p927
I10
sVtarget cracker
p928
I6
sVlaser sight
p929
I9
sVshock absorbers
p930
I3
sVstinging truth
p931
I16
sVloaded capacity
p932
I8
sVbraton prime stock
p933
I2
sVstatic discharge
p934
I1
sVscindo prime handle
p935
I6
sVwildfire
p936
I2
sVnami skyla prime blueprint
p937
I2
sVvaporize
p938
I3
sVnarrow barrel
p939
I80
sVboar prime blueprint
p940
I10
sVsplit chamber
p941
I3
sVpurifying flames
p942
I0
sVredirection
p943
I2
sVdakra prime blade
p944
I28
sVaxi e1 flawless
p945
I0
sVakbronco prime link
p946
I3
sVrending crane
p947
I18
sVmischief
p948
I4
sVfrail momentum
p949
I2
sVstriker
p950
I3
sVnova prime neuroptics
p951
I5
sVnikana prime blueprint
p952
I9
sVvolt prime systems
p953
I15
sVmeso s6 radiant
p954
I0
sVnaramon lens
p955
I4
sVmagnetized discharge
p956
I23
sVshred shot
p957
I0
sVrush
p958
I2
sVgorgon frenzy
p959
I59
sVharrow's temple scene
p960
I50
sVphaedra set
p961
I75
sVrage
p962
I17
sVfang prime blade
p963
I2
sVdetect vulnerability
p964
I74
sVsoma prime blueprint
p965
I5
sVmeso f1 intact
p966
I15
sVmeso n1 flawless
p967
I0
sVlith c2 flawless
p968
I0
sVarcane swindle loki helmet
p969
I266
sVvirulent scourge
p970
I6
sVvasto prime receiver
p971
I4
sVaxi o2 flawless
p972
I0
sVsilva & aegis prime hilt
p973
I2
sVlith g1 intact
p974
I55
sVtesla link
p975
I20
sVprimed reach
p976
I78
sVspira prime blade
p977
I59
sVlith s5 flawless
p978
I0
sVarcane menticide nyx helmet
p979
I50
sVneo s8 radiant
p980
I0
sVantimatter absorb
p981
I17
sVtrample
p982
I32
sVglaive prime blade
p983
I22
sVankyros prime set
p984
I151
sVhellfire
p985
I7
sVmeso f3 intact
p986
I20
sVtriple tap
p987
I0
sVneo s4 exceptional
p988
I0
sVonorix handle
p989
I15
sVaxi o3 flawless
p990
I0
sVshelter
p991
I8
sVdespoil
p992
I14
sVavenging truth
p993
I25
sVveil's binding scene
p994
I50
sVtether grenades
p995
I1
sVzephyr prime systems
p996
I24
sVbo prime blueprint
p997
I6
sVaxi n2 intact
p998
I0
sVproboscis
p999
I6
sVviper wraith
p1000
I103
sVmeso s1 flawless
p1001
I0
sVmeso s6 exceptional
p1002
I0
sVlith s6 exceptional
p1003
I0
sVlith s4 radiant
p1004
I40
sVmeso n4 flawless
p1005
I0
sVneo e1 radiant
p1006
I49
sVneo n6 flawless
p1007
I0
sVgrineer settlement artillery scene
p1008
I4
sVburston prime stock
p1009
I2
sVmind freak
p1010
I27
sVprimed point blank
p1011
I91
sVmeso c2 intact
p1012
I0
sVmeso n3 radiant
p1013
I0
sVmeso t1 intact
p1014
I4
sVneo b4 flawless
p1015
I0
sVpoint strike
p1016
I3
sVironclad charge
p1017
I16
sVakbolto prime set
p1018
I119
sVzodiac shred
p1019
I8
sVbronco prime set
p1020
I19
sVarbiters of hexis augment mod
p1021
I0
sVneo d1 flawless
p1022
I0
sVeidolon madurai lens
p1023
I87
sVparry
p1024
I4
sVhyperion thrusters
p1025
I6
sVmeso v2 intact
p1026
I10
sVneo k1 intact
p1027
I4
sVaxi v3 radiant
p1028
I0
sVkaszas set
p1029
I45
sVnova prime systems
p1030
I15
sVkarak wraith stock
p1031
I55
sVfirewalker
p1032
I3
sVcat's eye
p1033
I3
sVenduring affliction
p1034
I6
sVlith n1 exceptional
p1035
I0
sVblind rage
p1036
I19
sVrending turn
p1037
I4
sVnyx prime set
p1038
I233
sVmutalist alad v assassinate key
p1039
I18
sVemp aura
p1040
I3
sVcrushing ruin
p1041
I16
sVenergy conversion
p1042
I86
sVmeso b1 radiant
p1043
I0
sVcalculated spring
p1044
I0
sVdisruptor
p1045
I7
sVinaros tomb scene
p1046
I0
sVnikana prime hilt
p1047
I48
sVmodified munitions
p1048
I7
sVcalm & frenzy
p1049
I22
sVneo n6 radiant
p1050
I0
sVlith a2 intact
p1051
I5
sVfracturing crush
p1052
I18
sVexpel corpus
p1053
I15
sVarcane victory
p1054
I7
sVarcane thrak rhino helmet
p1055
I79
sVaxi s1 radiant
p1056
I0
sVarcane esprit vauban helmet
p1057
I61
sVcorvas set
p1058
I73
sVcrossing snakes
p1059
I1
sVhastened steps
p1060
I5
sVneo n4 exceptional
p1061
I0
sVsands of inaros
p1062
I40
sVtransient fortitude
p1063
I28
sVaxi n4 intact
p1064
I20
sVmetal fiber
p1065
I6
sVarmored acrobatics
p1066
I0
sVgorgon wraith barrel
p1067
I3
sVstrun wraith blueprint
p1068
I13
sVcold snap
p1069
I1
sVneo b2 flawless
p1070
I0
sVdefiled reckoning
p1071
I0
sVspira prime set
p1072
I181
sVmeso v4 exceptional
p1073
I0
sVfuror
p1074
I4
sVblunderbuss
p1075
I5
sVblaze
p1076
I5
sVneo b4 exceptional
p1077
I0
sVcressa's garrison scene
p1078
I48
sVlith t1 exceptional
p1079
I0
sVquickening
p1080
I5
sVlarge mortus lungfish
p1081
I4
sVneo s7 flawless
p1082
I0
sVnyx prime chassis
p1083
I141
sVmeso s4 intact
p1084
I15
sVpointed wind
p1085
I4
sVcentaur handle
p1086
I16
sVneo b1 radiant
p1087
I50
sVdual kamas prime set
p1088
I166
sVthumper
p1089
I3
sVcorrupt charge
p1090
I2
sVmeasured burst
p1091
I9
sVhollowed bullets
p1092
I6
sVcombustion rounds
p1093
I10
sVmedium sharrac
p1094
I0
sVaugur message
p1095
I4
sVaxi a3 exceptional
p1096
I0
sVbladed rounds
p1097
I10
sVbane of corrupted
p1098
I41
sVarcane velocity
p1099
I20
sVneo b1 intact
p1100
I50
sVodonata prime harness
p1101
I8
sVaxi k2 flawless
p1102
I0
sVdual rounds
p1103
I29
sVlith l1 exceptional
p1104
I0
sVfocused defense
p1105
I9
sVshotgun spazz
p1106
I4
sVice wave impedance
p1107
I14
sVaxi g1 exceptional
p1108
I0
sVguided ordnance
p1109
I8
sVprisma veritux
p1110
I133
sVfatal acceleration
p1111
I3
sVglaive prime blueprint
p1112
I44
sVdera vandal stock
p1113
I25
sVlith n1 flawless
p1114
I0
sVneo v5 radiant
p1115
I12
sVimpenetrable offense
p1116
I0
sVhydroid prime blueprint
p1117
I3
sVaxi l2 radiant
p1118
I19
sVmeso h1 flawless
p1119
I0
sVmirage prime neuroptics
p1120
I2
sVauger strike
p1121
I16
sVvenka prime gauntlet
p1122
I41
sVlink health
p1123
I18
sVaxi a2 intact
p1124
I8
sVfirequake
p1125
I16
sVcyngas set
p1126
I0
sVvectis prime set
p1127
I191
sVneo s2 flawless
p1128
I0
sVpain threshold
p1129
I1
sVvauban prime systems
p1130
I36
sVeidolon lens blueprint
p1131
I19
sVshrapnel rounds (marelok)
p1132
I0
sVeuphona prime set
p1133
I27
sVserrated rounds
p1134
I0
sVneo l1 radiant
p1135
I0
sVsynoid simulor
p1136
I49
sVaxi v6 intact
p1137
I10
sVlith n3 flawless
p1138
I0
sVfluctus barrel
p1139
I16
sVbane of grineer
p1140
I8
sVseeking fury
p1141
I3
sVmeso f2 intact
p1142
I0
sVaxi l1 flawless
p1143
I0
sVaxi g1 flawless
p1144
I0
sVmeso v1 intact
p1145
I16
sVradian sentirum
p1146
I5
sVlith f2 intact
p1147
I11
sVboltor prime blueprint
p1148
I41
sVnekros prime blueprint
p1149
I30
sVpower of three
p1150
I0
sVaxi t1 exceptional
p1151
I0
sVmedium goopolla
p1152
I0
sVtotal eclipse
p1153
I26
sVaccelerated blast
p1154
I2
sVkinetic collision
p1155
I0
sVparallax scope
p1156
I4
sVaxi v6 exceptional
p1157
I0
sVsicarus prime barrel
p1158
I11
sVsteel charge
p1159
I33
sVloki prime set
p1160
I273
sVarcane grace
p1161
I126
sVloose magazine
p1162
I0
sVinsulation
p1163
I9
sVmeso n5 flawless
p1164
I0
sVsicarus prime receiver
p1165
I40
sVneo n5 exceptional
p1166
I0
sVneo s5 exceptional
p1167
I0
sVlith a1 exceptional
p1168
I0
sVvirtuos ghost
p1169
I50
sVdestreza prime set
p1170
I75
sVfortitude
p1171
I2
sVvay hek frequency triangulator
p1172
I0
sVproof fragment
p1173
I0
sVvirtuos strike
p1174
I41
sVmedi-pet kit
p1175
I1
sVfang prime handle
p1176
I4
sVlith a1 radiant
p1177
I20
sVrift torrent
p1178
I19
sVsonic fracture
p1179
I21
sVfurious javelin
p1180
I17
sVstealth drift
p1181
I2
sVcunning drift
p1182
I5
sVnarrow minded
p1183
I19
sVpyrana prime barrel
p1184
I7
sVparis prime string
p1185
I3
sVlarge glappid
p1186
I4
sVzephyr prime neuroptics
p1187
I2
sVarcane ice
p1188
I2
sVvicious spread
p1189
I9
sVlatron wraith set
p1190
I56
sVlith s6 flawless
p1191
I0
sVenergy siphon
p1192
I8
sVcernos prime blueprint
p1193
I2
sVneo s8 intact
p1194
I7
sVchilling reload
p1195
I6
sVlimbo prime set
p1196
I139
sVflash accelerant
p1197
I16
sVmeso d1 intact
p1198
I15
sVarcane deflection
p1199
I2
sVprimed target cracker
p1200
I100
sVeverlasting ward
p1201
I21
sVomega beacon
p1202
I28
sVcrash shot
p1203
I0
sVswipe
p1204
I2
sVgrineer forest industry scene
p1205
I11
sVaxi n1 exceptional
p1206
I0
sVlith h1 flawless
p1207
I0
sVreflex coil
p1208
I2
sVfragor prime set
p1209
I17
sVneo s6 exceptional
p1210
I0
sVbraton prime barrel
p1211
I4
sVmeso v1 flawless
p1212
I0
sVheavy trauma
p1213
I2
sVcyngas barrel
p1214
I18
sVneo v3 exceptional
p1215
I0
sVreawaken
p1216
I71
sVmeso e1 flawless
p1217
I0
sVsteel fiber
p1218
I4
sVhunter's bonesaw
p1219
I4
sVscimitar fuselage
p1220
I8
sVlith n2 radiant
p1221
I0
sVsavagery
p1222
I4
sVdakra prime handle
p1223
I5
sVcomet blast
p1224
I15
sVmedium khut-khut
p1225
I0
sVsmall goopolla
p1226
I0
sVstalk
p1227
I5
sVsilent battery
p1228
I4
sVfluctus limbs
p1229
I16
sVlith s5 radiant
p1230
I20
sVperpetual agony
p1231
I7
sVthermite rounds
p1232
I9
sVcephalon suda augment mod
p1233
I9
sVaxi o1 flawless
p1234
I0
sVaxi s1 exceptional
p1235
I0
sVmeso v4 radiant
p1236
I75
sVmeso s1 exceptional
p1237
I0
sVballistic bullseye
p1238
I19
sVlato vandal barrel
p1239
I87
sVhydroid prime chassis
p1240
I3
sVrakta ballistica
p1241
I38
sVoberon prime chassis
p1242
I4
sVlarva burst
p1243
I15
sVfull capacity
p1244
I0
sVneo n1 flawless
p1245
I49
sVshell compression
p1246
I3
sVmantis set
p1247
I36
sVreach
p1248
I1
sVcharm
p1249
I1
sVaxi h3 flawless
p1250
I0
sVnova prime chassis
p1251
I275
sVhunter adrenaline
p1252
I5
sVvazarin transmute core
p1253
I9
sVboar prime barrel
p1254
I19
sVsheev set
p1255
I38
sVash prime set
p1256
I108
sVmeso n4 exceptional
p1257
I0
sVkronen prime set
p1258
I104
sVaxi l2 intact
p1259
I9
sVneo n1 exceptional
p1260
I0
sVgorgon wraith stock
p1261
I4
sVmeso t2 exceptional
p1262
I0
sVdischarge strike
p1263
I0
sVlith a1 intact
p1264
I13
sVdera vandal receiver
p1265
I11
sVtrinity prime neuroptics
p1266
I9
sVlith n3 intact
p1267
I8
sVcombustion beam
p1268
I3
sVneo s1 exceptional
p1269
I0
sVrelentless combination
p1270
I2
sVaxi n2 flawless
p1271
I0
sVmadurai transmute core
p1272
I8
sVsaryn prime neuroptics
p1273
I10
sVaxi h2 intact
p1274
I0
sVaxi h1 exceptional
p1275
I0
sVlith b3 exceptional
p1276
I0
sVburdened magazine
p1277
I2
sVneo s4 flawless
p1278
I0
sVfinal tap
p1279
I18
sVsmall sharrac
p1280
I0
sVintensify
p1281
I1
sVsnap shot
p1282
I0
sVarmored recovery
p1283
I0
sVbanshee prime chassis
p1284
I13
sVstunning speed
p1285
I2
sVaxi v3 intact
p1286
I0
sVmeso d1 exceptional
p1287
I0
sVsovereign outcast
p1288
I4
sVmedium tralok
p1289
I0
sVneo s2 exceptional
p1290
I0
sVtrinity prime systems
p1291
I8
sVexodia hunt
p1292
I65
sVneutralizing justice
p1293
I25
sVvasto prime barrel
p1294
I11
sVtainted shell
p1295
I2
sVarcane vanguard rhino helmet
p1296
I600
sVsheev hilt
p1297
I15
sVenhanced durability
p1298
I4
sVneo s5 radiant
p1299
I86
sVaxi r1 intact
p1300
I80
sVaklex prime blueprint
p1301
I7
sVgilded truth
p1302
I15
sVspring-loaded broadhead
p1303
I40
sVlith b3 flawless
p1304
I0
sVmeso f2 flawless
p1305
I0
sVnightwatch napalm
p1306
I7
sVfour riders
p1307
I17
sVparis prime set
p1308
I10
sVneo m1 exceptional
p1309
I0
sVvectis prime stock
p1310
I58
sVakstiletto prime link
p1311
I7
sVlith n2 flawless
p1312
I0
sVaxi o3 radiant
p1313
I19
sVmeso d1 flawless
p1314
I0
sVcyngas receiver
p1315
I13
sVfollow through
p1316
I0
sVtarget fixation
p1317
I17
sVaxi k2 radiant
p1318
I0
sVprimed slip magazine
p1319
I40
sVaxi v6 radiant
p1320
I0
sVmedium glappid
p1321
I4
sVcataclysmic continuum
p1322
I18
sVhydraulic gauge
p1323
I15
sVarcane phantasm
p1324
I3
sVcunning aspect
p1325
I0
sVlith c1 radiant
p1326
I30
sVbleeding edge
p1327
I4
sVlith s6 intact
p1328
I15
sVmeso o2 exceptional
p1329
I0
sVmedium murkray
p1330
I3
sVbody count
p1331
I13
sVvenka prime set
p1332
I85
sVboar prime receiver
p1333
I5
sVsmite corpus
p1334
I4
sVarcane gauss mag helmet
p1335
I113
sVneo m1 intact
p1336
I3
sVcovert lethality
p1337
I7
sVtigris prime stock
p1338
I2
sVconcussion rounds
p1339
I2
sVarcane squall frost helmet
p1340
I263
sVblind justice
p1341
I2
sVwinds of purity
p1342
I15
sVarcane energize
p1343
I278
sVrupture
p1344
I4
sVlith n1 intact
p1345
I80
sVlith s4 intact
p1346
I8
sVspeed drift
p1347
I16
sVmeso o2 intact
p1348
I5
sVpoint blank
p1349
I2
sVheightened reflexes
p1350
I6
sVbraton vandal barrel
p1351
I7
sVmeso g1 intact
p1352
I6
sVlith h1 exceptional
p1353
I0
sVamesha set
p1354
I150
sVakstiletto prime barrel
p1355
I10
sVmeso g1 flawless
p1356
I0
sVgorgon wraith set
p1357
I7
sVstrun wraith receiver
p1358
I40
sVfrost prime blueprint
p1359
I77
sVconcealed explosives
p1360
I12
sVneo z1 intact
p1361
I5
sVmeso n2 radiant
p1362
I0
sVsynoid heliocor
p1363
I55
sVlith m1 intact
p1364
I32
sVboltor prime stock
p1365
I15
sVfast deflection
p1366
I2
sVhunter command
p1367
I3
sVmantis fuselage
p1368
I12
sVenergy channel
p1369
I1
sVpatagium
p1370
I3
sVaxi k3 intact
p1371
I6
sVmeso d2 radiant
p1372
I0
sVtoxic flight
p1373
I2
sVrifle riven mod (veiled)
p1374
I47
sVvolt prime neuroptics
p1375
I51
sVpiercing hit
p1376
I4
sVmagus replenish
p1377
I65
sVdefiled snapdragon
p1378
I3
sVlith f1 radiant
p1379
I0
sVaxi n3 radiant
p1380
I0
sVneo v7 exceptional
p1381
I0
sVvigilante supplies
p1382
I18
sVaxi v1 exceptional
p1383
I0
sVheartseeker
p1384
I0
sVargent scourge
p1385
I0
sVshotgun scavenger
p1386
I4
sVaxi c2 intact
p1387
I10
sVaxi v1 flawless
p1388
I0
sVkavasa prime collar buckle
p1389
I14
sVarcane pulse
p1390
I8
sVhowl
p1391
I7
sVlith v1 intact
p1392
I6
sVcalculated shot
p1393
I0
sVrhino prime set
p1394
I363
sVreaper prime set
p1395
I50
sVlegendary fusion core
p1396
I394
sVkogake prime blueprint
p1397
I5
sVaxi a2 exceptional
p1398
I0
sVentropy burst
p1399
I19
sVcorpus void key
p1400
I475
sVgladiator might
p1401
I8
sVterritorial aggression
p1402
I5
sVgaia's tragedy
p1403
I2
sVneo v4 intact
p1404
I20
sVequilibrium
p1405
I13
sVrebound
p1406
I5
sVneo s8 flawless
p1407
I0
sVrapid resilience
p1408
I8
sVneo s8 exceptional
p1409
I0
sVcurative undertow
p1410
I26
sVneo s3 intact
p1411
I17
sVaxi e2 radiant
p1412
I0
sVsoma prime set
p1413
I186
sVripper rounds
p1414
I0
sVcorvas receiver
p1415
I14
sVshotgun riven mod (veiled)
p1416
I103
sVtactical reload
p1417
I11
sVmeso n3 exceptional
p1418
I0
sVprimed rifle ammo mutation
p1419
I60
sVrakta dark dagger
p1420
I66
sVxiphos avionics
p1421
I0
sVmeso n2 intact
p1422
I9
sVserrated edges
p1423
I0
sVaxi s1 flawless
p1424
I0
sVvolcanic edge
p1425
I8
sVapex predator
p1426
I0
sVtigris prime barrel
p1427
I3
sVvoltage sequence
p1428
I22
sVmeso s2 exceptional
p1429
I0
sVneo v2 exceptional
p1430
I0
sVadhesive blast
p1431
I2
sVlex prime set
p1432
I9
sVexodia brave
p1433
I100
sVmirage prime systems
p1434
I5
sVflailing branch
p1435
I4
sVaxi e2 exceptional
p1436
I0
sVsure footed
p1437
I8
sVkavasa prime collar blueprint
p1438
I6
sVlith c1 intact
p1439
I0
sVmag prime systems
p1440
I60
sVaxi c1 flawless
p1441
I0
sVmagus husk
p1442
I31
sVarc coil
p1443
I12
sVkaszas blade
p1444
I11
sVvauban prime set
p1445
I130
sVlith l1 intact
p1446
I0
sVsmoke shadow
p1447
I17
sVparis prime lower limb
p1448
I1
sVphaedra receiver
p1449
I17
sVnikana prime set
p1450
I131
sVmantis avionics
p1451
I8
sVpiercing caliber
p1452
I39
sVakstiletto prime set
p1453
I138
sVswing line
p1454
I19
sVfleeting expertise
p1455
I21
sVconvulsion
p1456
I2
sVgrim fury
p1457
I4
sVstrun wraith barrel
p1458
I28
sVprolonged paralysis
p1459
I24
sVcapacitance
p1460
I17
sVmirage prime set
p1461
I47
sVlith h1 intact
p1462
I4
sVneo b1 exceptional
p1463
I0
sVaxi n1 flawless
p1464
I0
sVkogake prime boot
p1465
I7
sVneo b5 radiant
p1466
I0
sVmeso e1 exceptional
p1467
I0
sVbattering maneuver
p1468
I4
sVrhino prime chassis
p1469
I42
sVlith v4 intact
p1470
I4
sVshield disruption
p1471
I9
sVakstiletto prime blueprint
p1472
I15
sVneo b2 radiant
p1473
I10
sVglacial edge
p1474
I4
sVfunnel clouds
p1475
I16
sVaxi n3 flawless
p1476
I0
sVvalkyr prime blueprint
p1477
I2
sVscindo prime blade
p1478
I56
sVmedium cuthol
p1479
I2
sVmag prime neuroptics
p1480
I14
sVinfested ship bridge scene
p1481
I0
sVmeso s3 exceptional
p1482
I0
sVmeso v1 exceptional
p1483
I0
sVlimbo prime neuroptics
p1484
I49
sVlith f1 flawless
p1485
I0
sVdakra prime set
p1486
I42
sVneo s5 intact
p1487
I29
sVmeso h1 radiant
p1488
I0
sVanemic agility
p1489
I5
sVprimed morphic transformer
p1490
I110
sVelytron systems
p1491
I0
sVtigris prime set
p1492
I33
sVrime vault
p1493
I0
sVguided effigy
p1494
I18
sVmeso n3 intact
p1495
I0
sVmeteor munitions
p1496
I0
sVonorix blade
p1497
I17
sVtidal impunity
p1498
I21
sVmeso c3 flawless
p1499
I0
sVneo v1 flawless
p1500
I0
sVastral slash
p1501
I7
sVsancti magistar
p1502
I53
sVvigilante offense
p1503
I17
sVsilva & aegis prime blueprint
p1504
I3
sVsniper ammo mutation
p1505
I1
sVaxi c2 flawless
p1506
I0
sVafterburn
p1507
I15
sVneo v3 flawless
p1508
I0
sVkavasa prime collar set
p1509
I28
sVlarge yogwun
p1510
I0
sVneo s2 radiant
p1511
I45
sVhallowed reckoning
p1512
I16
sVmedium norg
p1513
I2
sVparis prime upper limb
p1514
I2
sVneo n2 exceptional
p1515
I0
sVdeadly sequence
p1516
I15
sVlua nursery scene
p1517
I0
sVtelos akbolto
p1518
I49
sVnyx prime blueprint
p1519
I3
sVlith z1 flawless
p1520
I0
sVaxi h2 flawless
p1521
I0
sVvauban prime neuroptics
p1522
I24
sVsharpened blade
p1523
I0
sVvectis prime receiver
p1524
I96
sVshield of shadows
p1525
I17
sVshadow harvest
p1526
I0
sVtainted mag
p1527
I2
sVcoiling viper
p1528
I2
sVquickdraw
p1529
I4
sVprimed bane of infested
p1530
I55
sVshattering impact
p1531
I4
sVbraton prime set
p1532
I10
sVlith n1 radiant
p1533
I0
sVovercharge detectors
p1534
I0
sVfocus energy
p1535
I4
sVmeso v3 intact
p1536
I0
sVlarge charc eel
p1537
I0
sVmara detron
p1538
I113
sVmagazine warp
p1539
I4
sVeternal war
p1540
I14
sVpressure point
p1541
I1
sVsmall murkray
p1542
I2
sVcontagious spread
p1543
I4
sVslip magazine
p1544
I4
sVmeso s6 intact
p1545
I12
sVlith c1 flawless
p1546
I0
sVhawk eye
p1547
I4
sVdepleted reload
p1548
I4
sVaugur seeker
p1549
I35
sVsystem reroute
p1550
I21
sVlith f1 intact
p1551
I17
sVmobilize
p1552
I2
sVkaszas handle
p1553
I13
sVfreeze force
p1554
I13
sVneo a1 flawless
p1555
I0
sVgalvanized blade
p1556
I9
sVvelocitus stock
p1557
I14
sVlatron prime barrel
p1558
I25
sVcondition overload
p1559
I78
sVodonata prime blueprint
p1560
I6
sVmagus cloud
p1561
I50
sVmeso k1 flawless
p1562
I0
sVcoaction drift
p1563
I3
sVaxi l2 exceptional
p1564
I0
sVgamma beacon
p1565
I80
sVaxi n5 intact
p1566
I6
sVbronco prime barrel
p1567
I9
sVlith g2 flawless
p1568
I0
sVarcane pendragon excalibur helmet
p1569
I513
sVsmall norg
p1570
I2
sVtoxic sequence
p1571
I24
sVprimal rage
p1572
I22
sVneo s7 intact
p1573
I3
sVmomentary pause
p1574
I0
sVcharged chamber
p1575
I4
sVarcane awakening
p1576
I4
sVmeso c2 exceptional
p1577
I0
sVlooter
p1578
I68
sVcorvas barrel
p1579
I17
sVseeking force
p1580
I4
sVseismic wave
p1581
I5
sVred veil augment mod
p1582
I13
sVsaryn prime systems
p1583
I4
sVtempered blade
p1584
I4
sVaxi t1 intact
p1585
I15
sVmeso v1 radiant
p1586
I27
sVprimed cryo rounds
p1587
I78
sVshell rush
p1588
I80
sVspry sights
p1589
I10
sVneo n3 radiant
p1590
I20
sVlith s2 flawless
p1591
I0
sVdual decurion set
p1592
I99
sVloose chamber
p1593
I0
sVgalatine prime handle
p1594
I3
sVlith v2 exceptional
p1595
I0
sVgrineer forest water pump scene
p1596
I9
sVmeso n4 intact
p1597
I7
sVtigris prime receiver
p1598
I4
sVlith f2 flawless
p1599
I0
sVneo h1 flawless
p1600
I0
sVcarrier prime set
p1601
I116
sVneo v2 intact
p1602
I5
sVcrowd dispersion
p1603
I4
sVdrifting contact
p1604
I21
sVballistica prime blueprint
p1605
I9
sVsteel meridian augment mod
p1606
I14
sVcleanse grineer
p1607
I4
sVlato vandal blueprint
p1608
I74
sVtempered bound
p1609
I0
sVpathogen rounds
p1610
I11
sVorthos prime blueprint
p1611
I2
sVstabilizer
p1612
I1
sVneo a1 intact
p1613
I0
sVlith f2 exceptional
p1614
I0
sVcontinuity
p1615
I8
sVshattering storm
p1616
I4
sVsaryn prime set
p1617
I174
sVboar prime stock
p1618
I39
sVcarrier prime cerebrum
p1619
I79
sVcleaving whirlwind
p1620
I4
sVodonata prime wings
p1621
I26
sVvasto prime set
p1622
I80
sVlith l1 flawless
p1623
I0
sVarcane aegis
p1624
I19
sVvenomous rise
p1625
I0
sVarcane reverb banshee helmet
p1626
I74
sVreflex guard
p1627
I2
sVaxi n5 flawless
p1628
I0
sVagile aim
p1629
I0
sVargon scope
p1630
I235
sVneo n6 exceptional
p1631
I0
sVvigilante vigor
p1632
I3
sVscindo prime blueprint
p1633
I3
sVkill switch
p1634
I7
sVmeso s4 radiant
p1635
I40
sVarcane arachne
p1636
I4
sVtiberon prime barrel
p1637
I18
sVbraton prime blueprint
p1638
I1
sVward recovery
p1639
I0
sVentropy detonation
p1640
I18
sVneo e1 intact
p1641
I19
sVdelta beacon
p1642
I60
sVgunslinger
p1643
I3
sVmeso s5 flawless
p1644
I0
sVmeso v2 flawless
p1645
I0
sVdual kamas prime handle
p1646
I7
sVlith t1 radiant
p1647
I15
sVneo v4 flawless
p1648
I0
sVhunter track
p1649
I4
sVchilling grasp
p1650
I2
sVprimed fast hands
p1651
I67
sVbanshee prime set
p1652
I45
sVneo v3 intact
p1653
I7
sVneo v1 intact
p1654
I59
sVbo prime ornament
p1655
I18
sVrecharge barrier
p1656
I0
sVscimitar set
p1657
I73
sVmeso d2 intact
p1658
I6
sVlith s7 intact
p1659
I4
sVeidolon naramon lens
p1660
I81
sVgun glide
p1661
I18
sVcritical deceleration
p1662
I2
sVthermagnetic shells
p1663
I1
sVmeteor crash
p1664
I13
sVvasto prime blueprint
p1665
I34
sVbright purity
p1666
I22
sVarcane trickery
p1667
I4
sVelectromagnetic shielding
p1668
I11
sVcrash course
p1669
I3
sVarcane avenger
p1670
I19
sVmirage prime blueprint
p1671
I16
sVovercharged
p1672
I0
sVpolar magazine
p1673
I4
sVsynoid gammacor
p1674
I41
sVlith v3 exceptional
p1675
I0
sVscorch
p1676
I6
sVsoma prime receiver
p1677
I39
sVoverextended
p1678
I19
sVslicing feathers
p1679
I5
sVsmall khut-khut
p1680
I0
sVbraton prime receiver
p1681
I4
sVcontinuous misery
p1682
I5
sVvazarin lens
p1683
I4
sVneo b5 exceptional
p1684
I0
sVhydroid prime set
p1685
I69
sVlith s4 exceptional
p1686
I0
sVplains of eidolon scene
p1687
I51
sVlith h1 radiant
p1688
I0
sVaxi v4 intact
p1689
I0
sVrakta cernos
p1690
I45
sVskull shots (viper)
p1691
I10
sVcalculated redirection
p1692
I4
sVjustice blades
p1693
I15
sVlith s1 flawless
p1694
I0
sVrepelling bastille
p1695
I19
sVheated charge
p1696
I2
sVaxi r1 exceptional
p1697
I0
sVrifle amp
p1698
I9
sVvalkyr prime systems
p1699
I17
sVsmall cuthol
p1700
I2
sVarmored evade
p1701
I0
sVmeso k1 intact
p1702
I7
sVlith l1 radiant
p1703
I0
sVintruder
p1704
I4
sVmagus vigor
p1705
I30
sVrime rounds
p1706
I12
sVfull contact
p1707
I3
sVneo v7 radiant
p1708
I0
sVrumbled
p1709
I0
sVlith b2 exceptional
p1710
I0
sVhydraulic chamber
p1711
I15
sVmeso f2 radiant
p1712
I81
sVshred
p1713
I3
sVtigris prime blueprint
p1714
I29
sVenguard
p1715
I0
sVneo b4 intact
p1716
I4
sVpyrana prime receiver
p1717
I21
sVsoaring strike
p1718
I15
sVkinetic diversion
p1719
I300
sVeuphona prime barrel
p1720
I3
sVdeceptive bond
p1721
I0
sVaxi v7 exceptional
p1722
I15
sVaxi n1 intact
p1723
I14
sVsybaris prime barrel
p1724
I13
sVruinous extension
p1725
I21
sVsybaris prime stock
p1726
I3
sVlatron wraith stock
p1727
I11
sVcontagion cloud
p1728
I14
sVtrue steel
p1729
I3
sVaviator
p1730
I7
sVfluctus stock
p1731
I14
sVferocity
p1732
I4
sVmeso f1 radiant
p1733
I20
sVorokin derelict plaza scene
p1734
I95
sVarcane guardian
p1735
I40
sVgrineer forest factory scene
p1736
I10
sVhaven
p1737
I18
sVphoenix renewal
p1738
I14
sVlink shields
p1739
I10
sVcernos prime upper limb
p1740
I2
sVarcane aura trinity helmet
p1741
I131
sVneo n2 flawless
p1742
I0
sVmagus cadence
p1743
I50
sVbraton vandal blueprint
p1744
I86
sVtranquil cleave
p1745
I6
sVarcane strike
p1746
I14
sVarcane eruption
p1747
I4
sVlith v1 exceptional
p1748
I0
sVneutralize
p1749
I5
sVexodia triumph
p1750
I150
sVbroken war set
p1751
I600
sViron shrapnel
p1752
I15
sVsancti castanas
p1753
I48
sVstreamlined form
p1754
I15
sVdeep freeze
p1755
I3
sVbarrel diffusion
p1756
I5
sVaxi s1 intact
p1757
I10
sVphysique
p1758
I3
sVarbiter's tribunal scene
p1759
I0
sVdera vandal set
p1760
I39
sVankyros prime blueprint
p1761
I5
sVaxi c2 exceptional
p1762
I0
sVantimatter mine
p1763
I0
sVprovoked
p1764
I3
sVlith n2 intact
p1765
I0
sVlith t1 flawless
p1766
I0
sVlith m1 flawless
p1767
I0
sVakstiletto prime receiver
p1768
I38
sVmeso s5 intact
p1769
I8
sVmeso m1 intact
p1770
I48
sVthundermiter (miter)
p1771
I8
sVbroken war blade
p1772
I99
sVkarak wraith barrel
p1773
I11
sVvolt prime blueprint
p1774
I29
sVpiercing roar
p1775
I17
sVaxi b2 radiant
p1776
I0
sVrifle ammo mutation
p1777
I3
sVwyrm prime cerebrum
p1778
I27
sVlith a2 exceptional
p1779
I0
sVvelocitus barrel
p1780
I14
sVno return
p1781
I4
sVoberon prime systems
p1782
I34
sVemergent aftermath
p1783
I13
sVelectro pulse
p1784
I50
sVmeso s5 radiant
p1785
I20
sVnyx prime systems
p1786
I14
sVvigor
p1787
I6
sVlith b3 radiant
p1788
I0
sVnight stalker
p1789
I0
sVmeso b1 intact
p1790
I15
sVice storm
p1791
I1
sVneo v2 flawless
p1792
I0
sVarcane rage
p1793
I10
sVvicious frost
p1794
I6
sVaxi n3 intact
p1795
I0
sVlith g1 flawless
p1796
I0
sVlasting covenant
p1797
I16
sVdual decurion receiver
p1798
I17
sVaxi r1 flawless
p1799
I0
sVneo t1 intact
p1800
I15
sVdispatch overdrive
p1801
I3
sVlith g1 exceptional
p1802
I0
sVhandspring
p1803
I5
sVfrost prime neuroptics
p1804
I10
sVspeed trigger
p1805
I2
sVlith g2 radiant
p1806
I0
sVlith v1 radiant
p1807
I25
sVflame repellent
p1808
I3
sVaxi h2 exceptional
p1809
I0
sVcharged shell
p1810
I7
sVlith v4 exceptional
p1811
I0
sVlith f2 radiant
p1812
I0
sVprimed pressure point
p1813
I74
sVglaive prime disc
p1814
I7
sVsaryn prime blueprint
p1815
I29
sVvanquished prey
p1816
I0
sVxiphos engines
p1817
I37
sVgrineer settlement reactor scene
p1818
I50
sVdecisive judgement
p1819
I7
sVfever strike
p1820
I4
sVneo n1 radiant
p1821
I66
sVtargeting receptor
p1822
I44
sVsequence burn
p1823
I20
sVlith t1 intact
p1824
I0
sVmaiming strike
p1825
I336
sVmeso v5 exceptional
p1826
I0
sVeroding blight
p1827
I13
sVgrowing power
p1828
I74
sVneo n7 radiant
p1829
I0
sVamber ayatan star
p1830
I3
sVpyrana prime blueprint
p1831
I9
sVaxi v4 radiant
p1832
I30
sVmeso g1 radiant
p1833
I30
sVtrinity prime chassis
p1834
I8
sVirradiating disarm
p1835
I14
sVarcane nullifier
p1836
I8
sVlato vandal set
p1837
I218
sVmeso s6 flawless
p1838
I0
sVneo v2 radiant
p1839
I0
sVneo v4 exceptional
p1840
I0
sVaxi o1 radiant
p1841
I20
sVlith s1 radiant
p1842
I0
sVsniper scavenger
p1843
I3
sVvenomous clip
p1844
I8
sVmeso g1 exceptional
p1845
I0
sVsmite infested
p1846
I4
sVprimed regen
p1847
I90
sVaxi o3 intact
p1848
I8
sVprimed bane of corpus
p1849
I54
sVlith g2 intact
p1850
I19
sVsybaris prime receiver
p1851
I3
sVpiercing step
p1852
I5
sVaxi g1 intact
p1853
I21
sVmedium charc eel
p1854
I0
sVfinal act
p1855
I10
sVarcane locust ash helmet
p1856
I60
sVconcentrated arrow
p1857
I18
sVmeso c1 flawless
p1858
I0
sVlith s3 radiant
p1859
I30
sVstar crimzian
p1860
I2
sVsicarus prime set
p1861
I86
sVmeso o2 flawless
p1862
I0
sVneo s6 intact
p1863
I10
sVfurax wraith blueprint
p1864
I5
sVmeso n2 flawless
p1865
I0
sVsnipetron vandal barrel
p1866
I26
sVaxi n4 exceptional
p1867
I0
sVsheev heatsink
p1868
I8
sVmaul
p1869
I13
sVlith z1 intact
p1870
I6
sVvirtuos shadow
p1871
I50
sVneo b4 radiant
p1872
I0
sVcounterweight
p1873
I0
sVneo z1 flawless
p1874
I0
sVauxiliary power
p1875
I69
sVmeso z1 exceptional
p1876
I0
sVlith v3 intact
p1877
I3
sVenergy transfer
p1878
I23
sVhelios prime carapace
p1879
I1
sVtransistor shield
p1880
I17
sVsancti tigris
p1881
I48
sVreaper prime handle
p1882
I11
sVlith s7 flawless
p1883
I0
sVshield overload
p1884
I0
sVmetal auger
p1885
I2
sVneo s4 radiant
p1886
I0
sVhushed invisibility
p1887
I14
sVreflection
p1888
I3
sVundying will
p1889
I1
sVelytron set
p1890
I73
sVvelocitus set
p1891
I61
sVmeso c1 radiant
p1892
I40
sVfracturing wind
p1893
I1
sVarcane scorpion ash helmet
p1894
I37
sVmeso t2 intact
p1895
I4
sVargon plating
p1896
I4
sVbrief respite
p1897
I7
sVvaykor hek
p1898
I40
sVaxi l1 intact
p1899
I42
sVanasa ayatan sculpture
p1900
I17
sVhelios prime cerebrum
p1901
I15
sVmeso d1 radiant
p1902
I20
sVmagma chamber
p1903
I170
sVlingering torment
p1904
I3
sVarcane tempo
p1905
I3
sVlarge murkray
p1906
I3
sVaxi a2 radiant
p1907
I15
sVscattered justice
p1908
I14
sVammo drum
p1909
I4
sVlith b2 radiant
p1910
I0
sVaxi l1 radiant
p1911
I0
sVaxi h1 radiant
p1912
I0
sVswooping falcon
p1913
I8
sVmeso v5 intact
p1914
I10
sVgalatine prime set
p1915
I27
sVneo z1 radiant
p1916
I10
sVlex prime receiver
p1917
I7
sVsmite infusion
p1918
I17
sVnebula bore
p1919
I5
sVaxi l1 exceptional
p1920
I20
sVmeso f3 flawless
p1921
I0
sVchromatic blade
p1922
I14
sVhush
p1923
I4
sVgladiator rush
p1924
I3
sVneo a1 radiant
p1925
I30
sVtarget acquired
p1926
I56
sVentropy spike
p1927
I20
sVhigh noon
p1928
I6
sVgorgon wraith blueprint
p1929
I3
sVfocused acceleration
p1930
I7
sVzephyr prime set
p1931
I64
sVgleaming talon
p1932
I7
sVmeso s2 flawless
p1933
I0
sVaxi a3 intact
p1934
I11
sVaugur reach
p1935
I14
sVcyngas stock
p1936
I18
sVagkuza set
p1937
I62
sVtrue punishment
p1938
I4
sVarcane warmth
p1939
I2
sVsharpened claws
p1940
I5
sVankyros prime blade
p1941
I61
sVdisarming purity
p1942
I15
sVneo b5 intact
p1943
I5
sVcoolant leak
p1944
I15
sVburston prime receiver
p1945
I1
sVlock and load
p1946
I0
sVmeso z1 flawless
p1947
I0
sVfragor prime head
p1948
I3
sVshock trooper
p1949
I15
sVretribution
p1950
I3
sVaxi b2 intact
p1951
I5
sVvalkyr prime chassis
p1952
I28
sVlarge norg
p1953
I3
sVarmored agility
p1954
I3
sVmeso n1 radiant
p1955
I35
sVsense danger
p1956
I3
sVvenka prime blades
p1957
I2
sVtelos boltace
p1958
I80
sVarcane avalon excalibur helmet
p1959
I61
sVparis prime blueprint
p1960
I1
sVpeculiar growth
p1961
I30
sVaxi k2 exceptional
p1962
I0
sVsharpened bullets
p1963
I8
sVneo m1 radiant
p1964
I10
sVnegate
p1965
I68
sVsmall charc eel
p1966
I0
sVplan b
p1967
I5
sVlatron prime set
p1968
I66
sVeidolon unairu lens
p1969
I82
sVlunaro arena scene
p1970
I287
sVember prime systems
p1971
I23
sVdeft tempo
p1972
I7
sVaxi v7 flawless
p1973
I0
sVstrafing slide
p1974
I9
sVatlantis vulcan
p1975
I4
sVsmite corrupted
p1976
I11
sVneo s4 intact
p1977
I0
sVshredder
p1978
I5
sVkronen prime blueprint
p1979
I2
sVghost
p1980
I3
sVsapping reach
p1981
I0
sVneo v1 radiant
p1982
I75
sVcomet rounds
p1983
I0
sVbrain storm (grakata)
p1984
I17
sVaxi a1 intact
p1985
I10
sVvital systems bypass
p1986
I17
sVmag prime set
p1987
I173
sVaxi a1 exceptional
p1988
I0
sVlith k1 radiant
p1989
I20
sVdual kamas prime blueprint
p1990
I2
sVorta ayatan sculpture
p1991
I14
sVcritical delay
p1992
I3
sVaxi k1 flawless
p1993
I0
sVlua balcony scene
p1994
I5
sVneo b2 exceptional
p1995
I40
sVseismic palm
p1996
I1
sVneo d1 exceptional
p1997
I0
sVspeed holster
p1998
I6
sVtelos boltor
p1999
I59
sVcleanse corrupted
p2000
I45
sVmeso o1 intact
p2001
I10
sVneo v3 radiant
p2002
I0
sVarcane flux nova helmet
p2003
I40
sVammo stock
p2004
I9
sVmeso k1 exceptional
p2005
I0
sVtoxin resistance
p2006
I2
sVorgan shatter
p2007
I4
sVaxi a3 flawless
p2008
I0
sVaxi k2 intact
p2009
I10
sVtoxic barrage
p2010
I6
sVmeso h1 exceptional
p2011
I0
sVmeso v4 intact
p2012
I0
sVzephyr prime blueprint
p2013
I14
sVneo b3 intact
p2014
I40
sVmeso f3 exceptional
p2015
I0
sVfrost prime set
p2016
I168
sVfateful truth
p2017
I0
sVhall of malevolence
p2018
I20
sVsundering strike
p2019
I2
sVtrinity prime set
p2020
I60
sVfragor prime handle
p2021
I8
sVcalculated victory
p2022
I0
sVarcane chlora saryn helmet
p2023
I66
sVorthos prime handle
p2024
I3
sVvulkar wraith
p2025
I144
sVgladiator finesse
p2026
I15
sVfirestorm
p2027
I3
sVsecura lecta
p2028
I48
s.