(dp0
Vneo b2 intact
p1
F2.782122905027933
sVguardian derision
p2
F15.046534653465347
sVneo d1 radiant
p3
F21.4
sVtwin vipers wraith receivers
p4
F11.730366492146597
sVtwin vipers wraith link
p5
F13.890697674418604
sVoberon prime neuroptics
p6
F14.673687943262411
sVloki prime systems
p7
F138.98932980599648
sVfrostbite
p8
F4.891084093211753
sVvirtuos null
p9
F94.27272727272727
sVsheev blade
p10
F13.83920704845815
sVpyrana prime set
p11
F144.47070452911575
sVlith n3 exceptional
p12
I0
sVhelminth ferocity
p13
F111.25
sVrubedo-lined barrel
p14
F4.214285714285714
sVaxi v5 exceptional
p15
I0
sVaxi o2 exceptional
p16
I0
sVhelios prime blueprint
p17
F3.4474397182335412
sVshotgun savvy
p18
I4
sVaxi b1 flawless
p19
I0
sVarcane coil mag helmet
p20
F208.15420560747663
sVfatal teleport
p21
F14.698275862068966
sVcrimson dervish
p22
F9.89942857142857
sVspare parts
p23
I3
sVsheev blueprint
p24
F15.725225225225225
sVnami skyla prime blade
p25
F21.11654629021668
sVlith v1 flawless
p26
I0
sVinvestigator
p27
F15.0
sVelytron wings
p28
I23
sVscindo prime set
p29
F72.73660308810173
sVaxi v2 radiant
p30
I0
sVrising skill
p31
I7
sVpistol riven mod (veiled)
p32
F24.88215189873418
sVwhirlwind
p33
F5.072463768115942
sVpilfering swarm
p34
F14.499686422075886
sVfomorian accelerant
p35
F7.53921568627451
sVlith z1 exceptional
p36
I0
sVprimed fever strike
p37
F98.99349674837418
sVaxi h1 intact
p38
I7
sVexodia force
p39
F432.1089466089466
sVastral autopsy
p40
F1691.1639344262296
sVtwirling spire
p41
F9.279038718291055
sVfurax wraith set
p42
F15.512218963831867
sVneo t1 radiant
p43
I0
sVarcane phoenix ember helmet
p44
F87.45804195804196
sVstatic alacrity (staticor)
p45
I10
sVheavy caliber
p46
F18.669784751559042
sVlith k1 intact
p47
F5.0
sVspring-loaded blade
p48
F102.56953642384106
sVbanshee prime neuroptics
p49
F3.67675356921167
sVlatron prime stock
p50
F9.440329218106996
sVmortal conduct
p51
I22
sVreaping spiral
p52
F6001.98
sVhydraulic crosshairs
p53
F4.96022241231822
sVlith c1 exceptional
p54
I0
sVmedium karkina
p55
F2.7547169811320753
sVmedium yogwun
p56
I2
sVrift strike
p57
F7.1022727272727275
sVneo b5 flawless
p58
I0
sVkinetic ricochet
p59
F1.896103896103896
sVmeso c2 flawless
p60
I0
sVpower drift
p61
F7.480748331004502
sVtainted clip
p62
F2.8597122302158273
sVswirling tiger
p63
F2.8
sVagility drift
p64
F3.108156028368794
sVvectis prime barrel
p65
F12.383135562747213
sVlato vandal receiver
p66
F13.353338795575583
sVaxi k3 flawless
p67
I0
sVgleaming blight
p68
F14.152733118971062
sVbraton vandal receiver
p69
F15.84751278475128
sVenergy amplifier
p70
F38.79301533219761
sVcreeping bullseye
p71
F3.6010309278350516
sVshell shock
p72
F74.59191678035471
sVneo z1 exceptional
p73
I0
sVprimed bane of corrupted
p74
F64.65671641791045
sVprisma gorgon
p75
F77.67880434782609
sVaxi n2 exceptional
p76
I7
sVgrineer sealab centrifuge scene
p77
F4.6521739130434785
sVlink armor
p78
F9.092647058823529
sVice spring
p79
F16.873831775700936
sVnekros prime set
p80
F118.15515080624948
sVsaryn prime chassis
p81
F98.36353404614519
sVpressurized magazine
p82
F63.85585585585586
sVamesha systems
p83
I24
sVaxi e1 radiant
p84
I150
sVhollow point
p85
F3.7532751091703056
sVcyan ayatan star
p86
F2.057894736842105
sVbronco prime blueprint
p87
F2.848505434782609
sVsmall tralok
p88
F1.7829861111111112
sVvalana ayatan sculpture
p89
F5.834650856389987
sVneo v7 flawless
p90
I0
sVphaedra barrel
p91
F13.332938388625593
sVember prime chassis
p92
F27.47585785975858
sVitzal set
p93
F60.8936170212766
sVsybaris prime set
p94
F26.987039563437925
sVshimmering blight
p95
F4.231828193832599
sVneo n7 exceptional
p96
I0
sVvaykor sydon
p97
F37.44215180545321
sVvital sense
p98
F3.651436993367723
sVaxi k3 exceptional
p99
I0
sVash prime chassis
p100
F7.587111002205342
sVlith s7 radiant
p101
I1
sVaxi v4 exceptional
p102
I0
sVaxi s2 intact
p103
F8.639880952380953
sVscavenge
p104
F3.6458333333333335
sVneo n3 flawless
p105
I0
sVgorgon wraith receiver
p106
F4.423711340206186
sVloki prime blueprint
p107
F7.886181248776668
sVzenurik lens
p108
F9.599018199233717
sVlatron wraith blueprint
p109
F12.083333333333334
sVlasting sting
p110
F33.523809523809526
sVaxi t1 radiant
p111
I30
sVvalkyr prime neuroptics
p112
F4.078321678321679
sVstinging thorn
p113
F9.884707287933095
sVrepeater clip
p114
F7.64935064935065
sVneo v5 exceptional
p115
I20
sVmeso n3 flawless
p116
I0
sVmeso z1 intact
p117
F8.263157894736842
sVcernos prime set
p118
F28.321150855365474
sVflechette
p119
I3
sVquick return
p120
I4
sVaugur pact
p121
F3.7653688524590163
sVadept surge
p122
I7
sVtectonic fracture
p123
F14.674418604651162
sVhunter munitions
p124
F6.172375279225614
sVstrun wraith stock
p125
F20.305276381909547
sVsoul survivor
p126
F15.916666666666666
sVaxi k1 exceptional
p127
I0
sVneo h1 radiant
p128
I15
sVsmite grineer
p129
I3
sVakbolto prime link
p130
F3.7955121245023524
sVprimed heavy trauma
p131
F49.67851099830795
sVlimbo prime blueprint
p132
F17.736566407570127
sVprimed pistol mutation
p133
F91.5375
sVarcane hemlock saryn helmet
p134
F63.46923076923077
sVair recon
p135
I5
sVlith f1 exceptional
p136
I5
sVtwin vipers wraith set
p137
F42.462437395659435
sVexpel corrupted
p138
F15.422222222222222
sVmeso s5 exceptional
p139
I0
sVhydroid prime systems
p140
F32.6997078994158
sVsafeguard switch
p141
F15.3125
sVarcane chorus banshee helmet
p142
F313.32026143790847
sVloose hatch
p143
I20
sVmeso d2 flawless
p144
I0
sVserration
p145
F90.82763337893297
sVsilva & aegis prime guard
p146
F13.136834319526628
sVmartial fury
p147
I0
sVmeso c1 exceptional
p148
I0
sVammo case
p149
I5023
sVmedium mortus lungfish
p150
F2.1159420289855073
sVbleeding willow
p151
F5.816843826655765
sVtear azurite
p152
F1.175745784695201
sVambush optics (rubico)
p153
I6
sVcernos prime grip
p154
F6.174568965517241
sVnatural talent
p155
F6.48342365317182
sVacid shells
p156
F14.129421221864952
sVperpetual vortex
p157
F16.375
sVorthos prime blade
p158
F6.076298426662155
sVsingularity
p159
I19
sVbuzz kill
p160
F15.697913648217908
sVeagle eye
p161
F3.076923076923077
sVneo k1 exceptional
p162
I0
sVaxi t1 flawless
p163
I0
sVcernos prime lower limb
p164
F15.246506267108487
sVmeso n4 radiant
p165
I35
sVcleanse infested
p166
I2
sVfired up
p167
F4.108108108108108
sVsnipetron vandal receiver
p168
F10.89308176100629
sVneo b1 flawless
p169
I0
sVvauban prime blueprint
p170
F20.046701428247562
sVexodia might
p171
F293.1730769230769
sVblade of truth
p172
F12.777777777777779
sVpounce
p173
F3.6666666666666665
sVpistol scavenger
p174
F5.55
sVprimed shotgun ammo mutation
p175
F60.255319148936174
sVamaryn's retreat scene
p176
F50.85
sVlimbo prime chassis
p177
F49.99245224892175
sVpistol amp
p178
F5.80113297555158
sVballistica prime lower limb
p179
F8.91891891891892
sVneo s7 radiant
p180
I8
sVnyx prime neuroptics
p181
F68.99707067008421
sVmuzzle flash
p182
F16.945945945945947
sVrevenge
p183
I1
sVstreamline
p184
F2.03826895565093
sVsearing leap
p185
I22
sVmeso b1 exceptional
p186
I0
sVscimitar engines
p187
F37.72464312546957
sVwyrm prime set
p188
F91.18966172557963
sVneo s2 intact
p189
F13.767441860465116
sVaxi k3 radiant
p190
I10
sVdiamond skin
p191
F3.2142857142857144
sVmeso s4 flawless
p192
I0
sVneo s7 exceptional
p193
I0
sVrathbone set
p194
F32.18181818181818
sVvoltaic lance
p195
I21
sVbite
p196
F68.35151256923733
sVorvius disc
p197
F1.5546875
sVarcane gambit vauban helmet
p198
F47.767857142857146
sVshocking speed
p199
F16.073378839590443
sVlith z1 radiant
p200
F15.146341463414634
sVdraining gloom
p201
I14
sVprova vandal
p202
F61.5320945945946
sVamesha wings
p203
I0
sVaxi s2 exceptional
p204
I0
sVmeso k1 radiant
p205
I15
sVspring-loaded chamber
p206
F7.635294117647059
sVtempo royale
p207
F38.827610128338534
sVlife strike
p208
F20.616325445360278
sVitzal wings
p209
I26
sVbrutal tide
p210
F4.942956349206349
sVtear gas
p211
I20
sVhikou prime blueprint
p212
F4.378333333333333
sVsilva & aegis prime set
p213
F28.78190292510447
sVaxi a1 radiant
p214
I15
sVrazor shot
p215
I3
sVgalatine prime blade
p216
F3.3058181818181818
sVmaglev
p217
F4.142857142857143
sVmutalist nav coordinates
p218
F6.040117776959883
sVantitoxin
p219
F3.282608695652174
sVlith s3 exceptional
p220
I0
sVaxi e2 intact
p221
F5.853896103896104
sVquick thinking
p222
F13.032795698924732
sVmagus elevate
p223
F317.88344337227016
sVsicarus prime blueprint
p224
F9.568556361239288
sVcarrier prime carapace
p225
F14.137101715686274
sVvenom dose
p226
F14.834558823529411
sVaxi v3 exceptional
p227
I0
sVexplosive demise
p228
F16.0
sVhornet strike
p229
F80.55906593406593
sVlith h2 intact
p230
F2.8846153846153846
sVlith s4 flawless
p231
I0
sVlatron wraith barrel
p232
F15.747159090909092
sVmeso v2 radiant
p233
I20
sVmagus nourish
p234
F281.23793103448276
sVprecision munition
p235
I0
sVbane of corpus
p236
F2.625
sVcernos prime string
p237
F4.2844444444444445
sVrazorwing blitz
p238
F16.785365853658536
sVneo m1 flawless
p239
I0
sVflux overdrive
p240
F2.6338582677165356
sVvaya ayatan sculpture
p241
F7.253902862098872
sVarcane aurora frost helmet
p242
F79.41538461538461
sVaxi r1 radiant
p243
F95.37160120845921
sVsuda's datascape scene
p244
F35.1764705882353
sVeuphona prime blueprint
p245
F2.628526645768025
sVswift deth
p246
I2
sVtrick mag
p247
I3
sVneo k1 flawless
p248
I0
sVballistica prime upper limb
p249
F3.262172284644195
sVenduring strike
p250
F8.973684210526315
sVexpel grineer
p251
I5
sVvirtuos fury
p252
F258.0097947761194
sVflow
p253
F2.105828220858896
sVprimed continuity
p254
F99.49609130706692
sVtwin vipers wraith blueprint
p255
F9.507692307692308
sVpower throw
p256
F5.087078651685394
sVnami skyla prime set
p257
F76.44767870302137
sVtiberon prime blueprint
p258
F15.046065699006876
sVcreeping terrify
p259
F15.013333333333334
sVheart nyth
p260
F3.0549222495030985
sVsnipetron vandal set
p261
F43.34714548802947
sVsanctuary
p262
F4.621483375959079
sVneo f1 exceptional
p263
I0
sVfire fright
p264
F14.806451612903226
sVlex prime blueprint
p265
F2.4598842018196856
sVergo's boardroom scene
p266
F48.4375
sVbreach loader
p267
F13.366050808314087
sVunleashed
p268
I6
sVneo f1 intact
p269
F10.304498269896193
sVarcane pulse volt helmet
p270
F142.72413793103448
sVfinishing touch
p271
I3
sVmeso c3 radiant
p272
I10
sVgrineer shipyards manufactory scene
p273
F158739.6455026455
sVhunter recovery
p274
F2.7085308056872037
sVrending wind
p275
I2
sVrathbone head
p276
F13.62406015037594
sVneo s1 flawless
p277
I0
sVtiberon prime receiver
p278
F5.2368421052631575
sVaxi h2 radiant
p279
I30
sVesher devar
p280
F1.1934335443037976
sVstaggering shield
p281
F14.777777777777779
sVfanged fusillade
p282
F9.14146505376344
sVjet stream
p283
F15.491834170854272
sVgalatine prime blueprint
p284
F16.63218793828892
sVarcane fury
p285
F49.64639586757455
sVsearing steel
p286
F79.06277056277057
sVdakra prime blueprint
p287
F6.754769921436588
sVneo n4 radiant
p288
I15
sVprimed ravage
p289
F105.8031994047619
sVhysterical fixation
p290
I18
sVpummel
p291
F5.320448877805486
sVgnashing payara
p292
F2.66260162601626
sVlith h2 flawless
p293
I9
sVsilva & aegis prime blade
p294
F3.70410783055199
sVclashing forest
p295
F3.0238095238095237
sVaxi v5 intact
p296
I9
sVneo n5 radiant
p297
I20
sVaxi v2 intact
p298
F13.133333333333333
sVweeping wounds
p299
F65.17645398080181
sVmorphic transformer
p300
F7.739705882352941
sVmeso e1 radiant
p301
I19
sVtitanic rumbler
p302
F14.080645161290322
sVwarrior
p303
I8
sVexodia contagion
p304
F197.52429514097182
sVscimitar avionics
p305
F9.231220657276996
sVextend
p306
I3
sVincendiary coat
p307
F3.04
sVburston prime barrel
p308
F5.10861561119293
sVpath of statues
p309
F15.415178571428571
sVneo a1 exceptional
p310
I0
sVaxi e2 flawless
p311
I0
sVfulmination
p312
F19.507575757575758
sVmeso s4 exceptional
p313
I0
sVloki prime neuroptics
p314
F11.256796644399564
sVfinal harbinger
p315
F20.152806652806653
sVcorpus ship freight scene
p316
F4.076923076923077
sVprotect
p317
I8
sVscattering inferno
p318
F19.777530707327404
sVaxi c1 intact
p319
F9.0
sVmeso s3 intact
p320
I11
sVburning wasp
p321
F2.669642857142857
sVbraton vandal stock
p322
F78.90833932422717
sVheavy warhead
p323
F14.142857142857142
sVpeaceful provocation
p324
F15.908333333333333
sVneo h1 intact
p325
F3.268292682926829
sVvigilante armaments
p326
F8.384759291593914
sVloot detector
p327
F14.369603524229074
sVaxi h3 exceptional
p328
I0
sVreaper prime blade
p329
F8.37047146401985
sVharkonar scope
p330
F7.555555555555555
sVlith c2 intact
p331
F2.0118110236220472
sVaxi l2 flawless
p332
I0
sVtrinity prime blueprint
p333
F19.584692814994792
sVtargeting subsystem
p334
F8.712962962962964
sVanimal instinct
p335
F3.817982456140351
sVneo e1 exceptional
p336
I70
sVmeso m1 exceptional
p337
I0
sVaxi c1 exceptional
p338
I0
sVsudden justice
p339
I6
sVsuppress
p340
F557.8888888888889
sVlatron prime blueprint
p341
F7.604578563995838
sVdouble tap
p342
I6
sVash prime blueprint
p343
F17.53808073115004
sVmeso c1 intact
p344
F12.87589928057554
sVneo v6 flawless
p345
I0
sVair thrusters
p346
I6
sVprisma angstrum
p347
F86.1021711366539
sVsweeping serration
p348
F18.58912888677902
sVvenka prime blueprint
p349
F3.46677434240886
sVsavior decoy
p350
F16.56
sVelytron harness
p351
I28
sVlith n2 exceptional
p352
I0
sVfluctus set
p353
F63.49230769230769
sVaxi v5 radiant
p354
I20
sVaxi v6 flawless
p355
I17
sVvampire leech
p356
F14.688177107866228
sVaxi e1 intact
p357
I114
sVlightning dash
p358
F7.419689119170984
sVrecuperate
p359
F20.714285714285715
sVneo k1 radiant
p360
I18
sVlarge cuthol
p361
F3.3072198921509885
sVunairu lens
p362
F4.972480343102216
sVxiphos set
p363
F107.04347826086956
sVaxi k1 radiant
p364
I0
sVmeso c3 intact
p365
F6.153846153846154
sVhunhow's datascape scene
p366
I36
sVneo n1 intact
p367
F39.09904153354633
sVsignal flare
p368
F20.0
sVneo n7 intact
p369
I5
sVgrinloked
p370
F7.2
sVlith v3 flawless
p371
I0
sVprisma tetra
p372
F79.33848314606742
sVmeso f1 flawless
p373
I0
sVarcane storm volt helmet
p374
F221.37218045112783
sVlightning rod
p375
I6
sVsecura dual cestra
p376
F44.35180722891566
sVrending strike
p377
F3.0444444444444443
sVash prime neuroptics
p378
F7.827705031013094
sVneo v6 intact
p379
F2.9069767441860463
sVaxi v1 intact
p380
F10.724431818181818
sVlith v3 radiant
p381
I0
sVaxi v2 exceptional
p382
I0
sVembedded catalyzer
p383
F8.427884615384615
sVkarak wraith blueprint
p384
F12.438976377952756
sVkogake prime set
p385
F78.7061298076923
sVparis prime grip
p386
F3.6993583868010997
sVlith b1 radiant
p387
I54
sVboltor prime set
p388
F159.22640416907933
sVfrost prime chassis
p389
F18.663641170250266
sVneo v6 radiant
p390
I33
sVbraton vandal set
p391
F283.75126582278483
sVstalking fan
p392
F11.61782032400589
sVoberon prime set
p393
F76.58259830944506
sVlith b2 intact
p394
F3.411764705882353
sVoberon prime blueprint
p395
F3.412565550625252
sVrelentless assault
p396
I15
sVprisma dual cleavers
p397
F92.92336683417085
sVtoxic blight
p398
F12.1953125
sVrhino prime systems
p399
F13.731802638006839
sVneo v7 intact
p400
I5
sVaxi n4 radiant
p401
I30
sVarcane precision
p402
F23.658282904689862
sVlarge goopolla
p403
F2.3636363636363638
sVgladiator aegis
p404
F4.749266862170088
sVkronen prime blade
p405
F46.634581419992934
sVlarge karkina
p406
F3.317073170731707
sVseeking shuriken
p407
F14.827450980392157
sVtwin vipers wraith barrels
p408
F12.434389140271493
sVhunt
p409
F6.055555555555555
sVodonata prime set
p410
F55.59875690607735
sVchaos sphere
p411
F17.455882352941178
sVpistol pestilence
p412
F5.034501251340722
sVaxi o2 intact
p413
F7.198019801980198
sVcatalyzer link
p414
F6.9423076923076925
sVcolor key scene
p415
F56.36
sVbroad eye
p416
I5
sVkuva fortress crevice scene
p417
F9.090909090909092
sVprimed flow
p418
F97.31429243065351
sVhallowed eruption
p419
F16.10377358490566
sVaxi c1 radiant
p420
I0
sVpurging slash
p421
F17.5
sVanti-flak plating
p422
I10
sVbore
p423
F16.566820276497698
sVterminal velocity
p424
F10.488888888888889
sVneo s6 flawless
p425
I0
sVtiberon prime set
p426
F87.78958944281526
sVastral twilight
p427
F4.653740875912408
sVlucky shot
p428
I0
sVneo n7 flawless
p429
I0
sVnano-applicator
p430
F97.58333333333333
sVmeso v3 exceptional
p431
I0
sVsinking talon
p432
I2
sVenergy field
p433
F4.75
sVfatal attraction
p434
I8
sVember prime blueprint
p435
F64.8060020741509
sVmeso c3 exceptional
p436
I0
sVblood rush
p437
F15.566676964267325
sVsword alone
p438
F18.333333333333332
sVdestreza prime handle
p439
F22.438658777120317
sVshotgun amp
p440
F11.077685950413223
sVmeso f3 radiant
p441
I30
sVgreedy pull
p442
F61739.68518518518
sVshocking touch
p443
F4.9
sVtwitch
p444
F14.857142857142858
sVvauban prime chassis
p445
F23.85562679637409
sVprisma skana
p446
F72.34278002699055
sVlith a2 radiant
p447
I14
sVmedium mawfish
p448
I2
sVhoming fang
p449
F3.2163461538461537
sVpistol gambit
p450
F6.153846153846154
sVhigh voltage
p451
F55.91319955817379
sVshrapnel shot
p452
F4.408759124087592
sVvalkyr prime set
p453
F87.32453416149069
sVaugur accord
p454
F4.044619422572178
sVsoma prime stock
p455
F88.89212694537687
sVneo t1 exceptional
p456
I0
sVseeker
p457
F3.054421768707483
sVsnipetron vandal stock
p458
F16.167134831460675
sVlith v2 flawless
p459
I0
sVvitality
p460
F71.7826530612245
sVaxi o3 exceptional
p461
I0
sVsafeguard
p462
F14.92356687898089
sViron vault
p463
F18.56281407035176
sVmeso t2 radiant
p464
I10
sVrejuvenation
p465
F11.951592356687899
sVlith h2 radiant
p466
F10.857142857142858
sVrazor munitions
p467
I10
sVballistica prime receiver
p468
F3.9486581096849473
sVblazing steel
p469
F16.367924528301888
sVarrow mutation
p470
F3.5555555555555554
sVspira prime blueprint
p471
F3.021861777150917
sVankyros prime gauntlet
p472
F22.553114571746384
sVakbolto prime blueprint
p473
F3.345266507557677
sVlith s7 exceptional
p474
I0
sVfury
p475
F4.765625
sVaxi b1 exceptional
p476
I0
sVeuphona prime receiver
p477
F26.828184835333165
sVmag prime blueprint
p478
F59.667658966420575
sVneo n4 flawless
p479
I40
sVlith v4 flawless
p480
I0
sVmeso m1 radiant
p481
F39.23076923076923
sVdirected convergence
p482
I9099
sVlith v2 intact
p483
F3.92
sVbroken war hilt
p484
F38.70859872611465
sVaxi s2 flawless
p485
I0
sVhealing return
p486
F8.332449941107186
sVaxi n1 radiant
p487
I29
sVsmall mawfish
p488
I1
sVpiercing navigator
p489
F15.826086956521738
sVhydroid prime neuroptics
p490
F12.370653594771241
sVlatron wraith receiver
p491
F13.493288590604028
sVsurging dash
p492
F14.707317073170731
sVmirage prime chassis
p493
F3.338106796116505
sVlith m1 exceptional
p494
I10
sVexodia epidemic
p495
F192.0056657223796
sVbo prime set
p496
F81.31078967943706
sVember prime neuroptics
p497
F16.840512753774075
sVballistica prime set
p498
F35.0531512605042
sVhydraulic barrel
p499
I6
sVcleanse corpus
p500
F3.56
sVnoble cadence
p501
I8
sVhelios prime set
p502
F26.301776915036584
sVlethal torrent
p503
F5.564647538080057
sVmeso f2 exceptional
p504
I0
sVneo l1 intact
p505
F9.495238095238095
sVbeguiling lantern
p506
F13.96774193548387
sVlarge mawfish
p507
I202
sVpacifying bolts
p508
F16.11764705882353
sVmeso m1 flawless
p509
I0
sVlith s3 intact
p510
I10
sVneo b3 exceptional
p511
I0
sVmeso b1 flawless
p512
I0
sVvoltaic strike
p513
F83.54224519940915
sVmeso v2 exceptional
p514
I0
sVnikana prime blade
p515
F44.79089465325569
sVarcane healing
p516
F9.216890595009597
sVanticipation
p517
I7
sVneo v5 flawless
p518
I0
sVcounter pulse
p519
F18.093243243243244
sVarcane resistance
p520
F13.565434565434565
sVmeso v5 radiant
p521
I0
sVmeso t1 radiant
p522
I9
sVblind shot
p523
I6
sVfast hands
p524
I6
sVkarak wraith receiver
p525
F13.470326409495549
sVakbolto prime barrel
p526
F4.594410718023864
sVneo f1 flawless
p527
I0
sVaxi b2 exceptional
p528
I0
sVquasar drill
p529
F9.871621621621621
sVneo f1 radiant
p530
F22.455882352941178
sVvigilante fervor
p531
F5.55968045112782
sVescape velocity
p532
F14.34862385321101
sVreaping chakram
p533
F14.949367088607595
sVakbronco prime blueprint
p534
F1.4400778210116731
sVprimed bane of grineer
p535
F72.15037593984962
sVlie in wait
p536
I12
sVgladiator resolve
p537
F5.945450530035336
sVamesha harness
p538
I0
sVspira prime pouch
p539
F21.09452736318408
sVdig
p540
F8.25
sVboltor prime barrel
p541
F15.401623985009369
sVaxi k1 intact
p542
F9.533536585365853
sVtactical pump
p543
F2.75
sVlith a2 flawless
p544
I0
sVbullet dance
p545
F34.83094384707288
sVnekros prime neuroptics
p546
F32.351518560179976
sVneutron star
p547
F15.271929824561404
sVcarrier prime blueprint
p548
F5.452274754683319
sVayr ayatan sculpture
p549
F6.186361711139348
sVmalicious raptor
p550
F9.309923664122138
sVconstitution
p551
F9.064635045465716
sVagkuza guard
p552
F11.655228758169935
sVlith c2 radiant
p553
I13
sVlith g2 exceptional
p554
I0
sVnorth wind
p555
F5.08
sVsuperior defenses
p556
F155.28
sVguardian
p557
F3.73
sVstrun wraith set
p558
F79.7127358490566
sVlith s5 intact
p559
F7.028985507246377
sVcarrier prime systems
p560
F4.78918791312559
sVmeso v3 radiant
p561
I0
sVneo b3 radiant
p562
I21
sVenemy radar
p563
F9.295838751625487
sVmag prime chassis
p564
F9.854112778065184
sVaxi n3 exceptional
p565
I0
sVignis wraith blueprint
p566
F4.138585275314498
sVresonance
p567
F16.01068090787717
sVneo v5 intact
p568
F1.94
sVmeso n1 exceptional
p569
I0
sVmadurai lens
p570
F8.627769571639586
sVdera vandal barrel
p571
F13.24537037037037
sVimperator vandal receiver
p572
F49.19065981148243
sVmeso v3 flawless
p573
I0
sVsybaris prime blueprint
p574
F5.482837528604119
sVjagged edge
p575
F3.6843607305936072
sVneo s5 flawless
p576
I0
sVkarak wraith set
p577
F65.04805194805195
sVaxi o2 radiant
p578
I15
sVautomatic trigger
p579
F4.350678733031674
sVravage
p580
F2.9123376623376624
sVlith b1 intact
p581
F13.631205673758865
sVregen
p582
I2
sVfireball frenzy
p583
F13.777777777777779
sVmeso v5 flawless
p584
I0
sVefficient transferral
p585
F6.242063492063492
sVneo v4 radiant
p586
I0
sVduality
p587
F17.688925081433226
sVflak shot
p588
I10
sVprimed heated charge
p589
F118.46636432350718
sVarcane acceleration
p590
F30.19327476522266
sVfang prime blueprint
p591
F1.76625
sVaxi b2 flawless
p592
I0
sVbane of infested
p593
F6.0
sVnekros prime chassis
p594
F4.719197357151597
sVlarge tralok
p595
F9768.443359375
sVaxi h1 flawless
p596
I0
sVmolecular conversion
p597
I20
sVteshin's refuge scene
p598
F119.125
sVprize kill
p599
F22.142857142857142
sVgladiator vice
p600
F75.9622441778405
sVvulpine mask
p601
F3.932485322896282
sVancient fusion core
p602
F724.0217391304348
sVmesa\u2019s waltz
p603
F14.209395973154363
sVarcane barrier
p604
F28.295947605403192
sVcarving mantis
p605
F8.772812793979304
sVempowered blades
p606
F43.71224489795918
sVeleventh storm
p607
F4.449367088607595
sVneo n3 intact
p608
F9.280701754385966
sVsacrifice
p609
F19.115023474178404
sVaugur secrets
p610
F98.81988726440021
sVaxi e1 exceptional
p611
I0
sVbanshee prime blueprint
p612
F4.031156636790439
sVhikou prime stars
p613
F10.746994342291371
sVfang prime set
p614
F12.187961595273265
sVicy avalanche
p615
F15.058666666666667
sVfurax wraith left gauntlet
p616
F6.419894366197183
sVkappa beacon
p617
F1833.0208333333333
sVsawtooth clip
p618
F180768.66346153847
sVlow current leap
p619
I7
sVelemental sandstorm
p620
F17.6875
sVcorpus gas city conduit scene
p621
F48.95454545454545
sVeidolon zenurik lens
p622
F85.97568988173455
sVlethal momentum
p623
F4.565217391304348
sVexpel infested
p624
I8
sVspinning needle
p625
F1.5625
sVlith n3 radiant
p626
F10.723684210526315
sViron phoenix
p627
F2.1646706586826348
sVthe perrin sequence augment mod
p628
F13.777173913043478
sVaxi n4 flawless
p629
I0
sVneo n6 intact
p630
I7
sVitzal systems
p631
I29
sVprisma grakata
p632
F83.30679012345679
sVabating link
p633
F17.086566091954023
sVmeso t2 flawless
p634
I0
sVmaim
p635
F8.120775969962454
sVneo v1 exceptional
p636
I4890
sVsure shot
p637
I3
sVore gaze
p638
F14.0
sVlarge sharrac
p639
F3.67
sVvigilante pursuit
p640
F3.195906432748538
sVaxi n5 radiant
p641
F15.933962264150944
sVnegation swarm
p642
F16.865308804204993
sVmeso s2 intact
p643
F9.171936758893281
sVmeso s1 intact
p644
I13
sVsteady hands
p645
F3.0
sVlith s2 exceptional
p646
I0
sVash prime systems
p647
F97.13901387326584
sVlith b1 exceptional
p648
I10
sVaxi b1 intact
p649
I9
sVretrieve
p650
F5.0
sVquanta vandal
p651
F77.28006329113924
sVwyrm prime carapace
p652
F21.0995670995671
sVaxi s2 radiant
p653
I20
sVneo h1 exceptional
p654
I0
sVphaedra stock
p655
F13.31505376344086
sVnova prime set
p656
F337.0358548316572
sVmalignant force
p657
F7.466126491109611
sVlith b3 intact
p658
F5.844827586206897
sVdestreza prime blade
p659
F37.78902352102637
sVlith s5 exceptional
p660
I0
sVaxi v4 flawless
p661
I0
sVcorrosive projection
p662
F14.508319340558693
sVlith s6 radiant
p663
I0
sVarcane essence loki helmet
p664
F150.50328947368422
sVprisma obex
p665
F107.62938005390835
sVeject magazine
p666
F18.172043010752688
sVaxi a1 flawless
p667
I0
sVreflect
p668
F4.791666666666667
sVneo v6 exceptional
p669
I0
sVsah ayatan sculpture
p670
F6.277047093763258
sVexodia valor
p671
F246.4718309859155
sVimperator vandal set
p672
F79.65872302158273
sVhysterical assault
p673
F17.830459770114942
sVglaive prime set
p674
F124.31096516276413
sVlex prime barrel
p675
F1.906808803301238
sVshattering justice
p676
F12.793617021276596
sVhammer shot
p677
F7.495336787564767
sVboltor prime receiver
p678
F18.27744451109778
sVsmall mortus lungfish
p679
F1.5053763440860215
sVstockpiled blight
p680
F12.365853658536585
sVnaramon transmute core
p681
F6.6923076923076925
sVaxi n2 radiant
p682
I26
sVresonating quake
p683
F15.098438560760354
sVsavage silence
p684
F16.828767123287673
sVarcane agility
p685
F11.90590405904059
sVlith b2 flawless
p686
I0
sVneo n2 intact
p687
F11.96046511627907
sVcutting edge
p688
I3
sVlith s3 flawless
p689
I0
sVaklex prime set
p690
F81.1696875
sVlith a1 flawless
p691
I0
sVbanshee prime systems
p692
F19.093548387096774
sVreinforcing stomp
p693
F14.762589928057555
sVreflex draw
p694
F15.144736842105264
sVthief's wit
p695
F17.841836734693878
sVlarge khut-khut
p696
I3
sVarcane meridian trinity helmet
p697
F68.83098591549296
sVvermilion storm
p698
F8.010942760942761
sVpeculiar bloom
p699
F37.22089947089947
sVlasting purity
p700
F16.542424242424243
sVshield charger
p701
F1.9904458598726114
sVberserker
p702
F18.804524361948957
sVprism guard
p703
I17
sVmagnum force
p704
F3.7054794520547945
sVinfiltrate
p705
F15.559426229508198
sVquick charge
p706
I23
sVgemini cross
p707
F2.7419354838709675
sVakbolto prime receiver
p708
F47.45430183356841
sVcyclone kraken
p709
F55.71937842778794
sVodonata prime systems
p710
F4.415724563206577
sVchilling globe
p711
F12.759717314487633
sVelectrified barrel
p712
F26.376554174067497
sVpistol ammo mutation
p713
F2.75
sVlith c2 exceptional
p714
I0
sVmeso d2 exceptional
p715
I0
sVaxi v2 flawless
p716
I0
sVcorpus ice planet wreckage scene
p717
F39.527272727272724
sVarcane ultimatum
p718
F22.097207009857613
sVmelee riven mod (veiled)
p719
F36.993967923546386
sVregenerative molt
p720
F14.315568022440393
sVrecover
p721
I22
sVprimed chamber
p722
F92480.06521739131
sVneo n3 exceptional
p723
I0
sVmeso s3 radiant
p724
I0
sVmeso n5 intact
p725
F3.83835005574136
sVmeso o1 flawless
p726
I0
sVprimed pistol gambit
p727
F153.00160642570282
sVwarm coat
p728
F15.5
sVlatron prime receiver
p729
F8.284433577832111
sVhunter synergy
p730
F3.7486033519553073
sVmeso n2 exceptional
p731
I20
sVarcane backdraft ember helmet
p732
F63.142857142857146
sVrifle aptitude
p733
F3.3333333333333335
sVmachete wraith
p734
F61.28180039138943
sVmagazine extension
p735
I4
sVvile acceleration
p736
F10.062665383690161
sVlith s1 exceptional
p737
I0
sVmeso o1 radiant
p738
I0
sVzephyr prime chassis
p739
F9.469792040157763
sVsmall yogwun
p740
I1
sVspoiled strike
p741
F3.830219523587109
sVimperator vandal blueprint
p742
F3.91522491349481
sVhikou prime pouch
p743
F29.519945188794154
sVloki prime chassis
p744
F45.9037573144441
sVlith b1 flawless
p745
I0
sVmeso v4 flawless
p746
I0
sVaxi g1 radiant
p747
I10
sVrising storm
p748
F15.31578947368421
sVkavasa prime collar band
p749
F5.07972027972028
sVhealth conversion
p750
F63.08606557377049
sVheavy impact
p751
I3
sVneo d1 intact
p752
F10.739669421487603
sVdouble-barrel drift
p753
F16.54237288135593
sVadrenaline boost
p754
F8.777777777777779
sVneo l1 exceptional
p755
I16
sVjolt
p756
F78.76085607940446
sVrhino prime blueprint
p757
F314.9429147078576
sVnekros prime systems
p758
F28.127137970353477
sVaxi v7 radiant
p759
I15
sVstormbringer
p760
F4.604938271604938
sVrifle scavenger
p761
F4.446808510638298
sVneo l1 flawless
p762
I25
sVxiphos fuselage
p763
F81.34375
sVcentaur set
p764
F59.3859649122807
sVarcane consequence
p765
F14.105658567774936
sVdual decurion barrel
p766
F13.303680981595091
sVsinister reach
p767
F3.2578947368421054
sVaxi v5 flawless
p768
I0
sVmeso t1 flawless
p769
I0
sVmaximum capacity
p770
I0
sVtiberon prime stock
p771
F19.149511854951186
sVhikou prime set
p772
F101.68458171206225
sVassimilate
p773
F16.19090909090909
sVvaykor marelok
p774
F32.01987662782728
sVvexing retaliation
p775
F15.75
sVaxi n5 exceptional
p776
I0
sVmeso n5 radiant
p777
F13.279069767441861
sVmarquise veridos
p778
F1.1527087149960744
sVneo n2 radiant
p779
I28
sVaxi v3 flawless
p780
I0
sVfrost prime systems
p781
F17.441736547868622
sVfragor prime blueprint
p782
F6.266536964980545
sVmaster thief
p783
F3.3536585365853657
sVneo s3 exceptional
p784
I0
sVkilling blow
p785
F8.705882352941176
sVneo e1 flawless
p786
I100
sVcorroding barrage
p787
F16.428571428571427
sVradiant finish
p788
F14.82089552238806
sVmeso o1 exceptional
p789
I0
sVwyrm prime systems
p790
F24.097188049209137
sVmeso s3 flawless
p791
I0
sVcentaur blade
p792
F12.915760869565217
sVaxi v7 intact
p793
F4.6466666666666665
sVfrigid blast
p794
F12.667113955408754
sVvolt prime set
p795
F176.82718446601942
sVnova prime blueprint
p796
F30.855370085657807
sVnami skyla prime handle
p797
F3.546907678518076
sVaxi v1 radiant
p798
I30
sVorvius blade
p799
F3.163768115942029
sVballistica prime string
p800
F3.556878949927078
sVinfected clip
p801
F6.033333333333333
sVsmall karkina
p802
I2
sVsoma prime barrel
p803
F17.661601402688486
sVneo b3 flawless
p804
I0
sVneo s1 radiant
p805
I35
sVnew loka augment mod
p806
F13.2890625
sVneo n4 intact
p807
I5
sVshotgun ammo mutation
p808
F2.6346153846153846
sVmedi-ray
p809
F30.02266081871345
sVcryo rounds
p810
F5.212765957446808
sVenhanced vitality
p811
F48.28125
sVoverview
p812
I5
sVhell's chamber
p813
F2.037126995142262
sVfeathered arrows
p814
I14
sVmeso e1 intact
p815
F19.929775280898877
sVvulcan blitz
p816
F11.151741293532337
sVaxi c2 radiant
p817
I0
sVmeso f1 exceptional
p818
I0
sVstretch
p819
F4.184210526315789
sVonorix set
p820
F45.016666666666666
sVmeso s1 radiant
p821
I40
sVaxi o1 exceptional
p822
I0
sVreaper prime blueprint
p823
F8.761430678466077
sVcorvas stock
p824
F11.49168975069252
sVbo prime handle
p825
F14.661240310077519
sVakbronco prime set
p826
F12.118780096308186
sVlith h2 exceptional
p827
I0
sVpiv ayatan sculpture
p828
F6.896853146853147
sVself destruct
p829
F4.476190476190476
sVlith g1 radiant
p830
I38
sVmolten impact
p831
F4.516129032258065
sVvengeful revenant
p832
F73.14778037383178
sVfurax wraith right gauntlet
p833
F6.39948006932409
sVneo n5 flawless
p834
I0
sVaccelerated deflection
p835
I3
sVlith k1 flawless
p836
I0
sVexplosive legerdemain
p837
F14.953488372093023
sVsecondary wind
p838
I8
sVsundering weave
p839
F6.333333333333333
sVinfested impedance
p840
F4.8
sVstand united
p841
F18.697346600331674
sVmeso t1 exceptional
p842
I0
sVarcane vespa nyx helmet
p843
F159.07142857142858
sVlith m1 radiant
p844
I21
sVaxi a2 flawless
p845
I15
sVsprint boost
p846
F15.75064267352185
sVpyroclastic flow
p847
F14.854545454545455
sVaklex prime link
p848
F60.26664390576989
sVmeso n1 intact
p849
F10.081896551724139
sVloyal companion
p850
I8
sVsoft hands
p851
F9.0
sVarcane momentum
p852
F13.879074658254469
sVthunderbolt
p853
F2.495967741935484
sVburston prime blueprint
p854
F1.5941935483870968
sVrhino prime neuroptics
p855
F46.25723285114326
sVmeso h1 intact
p856
I4
sVrathbone handle
p857
F12.051495016611296
sVagkuza handle
p858
F17.083109919571047
sVbounty hunter
p859
I10
sVeidolon vazarin lens
p860
F76.17441860465117
sVpoisonous sting
p861
F9.80891719745223
sVlith s2 intact
p862
F8.426168224299065
sVdera vandal blueprint
p863
F8.017441860465116
sVtactical retreat
p864
I13
sVlith k1 exceptional
p865
I0
sVaxi a3 radiant
p866
I16
sVsecura penta
p867
F47.73071979434447
sVsurplus diverters
p868
I15
sVafterburner
p869
F5.887755102040816
sVlith v4 radiant
p870
I0
sVenemy sense
p871
F3.631289308176101
sVmeso o2 radiant
p872
I10
sVsmall glappid
p873
F1.93237895716946
sVvolt prime chassis
p874
F22.836887994634473
sVpack leader
p875
F4.266666666666667
sVorthos prime set
p876
F17.037894464562857
sVcentaur aegis
p877
F13.402597402597403
sVimpaler munitions
p878
I10
sVdestreza prime blueprint
p879
F18.89911190053286
sVwyrm prime blueprint
p880
F4.837899543378995
sVimperator vandal barrel
p881
F8.753556910569106
sVlimbo prime systems
p882
F10.540712468193384
sVvectis prime blueprint
p883
F6.161219512195122
sVstand ground
p884
I20
sVcollision force
p885
F4.582905982905983
sVdual kamas prime blade
p886
F63.7168
sVneo s1 intact
p887
F8.54
sVsnipetron vandal blueprint
p888
F10.51
sVmelee prowess
p889
I6
sVvacuum
p890
F3.65625
sVmeso n5 exceptional
p891
I0
sVneo n5 intact
p892
F13.716666666666667
sVhastened deflection
p893
F6.1923076923076925
sVember prime set
p894
F173.27683656036447
sVmantis engines
p895
F4.752486610558531
sVlith v2 radiant
p896
I0
sVneo s6 radiant
p897
I0
sVboar prime set
p898
F99.35062972292191
sVaxi h3 radiant
p899
F9.647058823529411
sVpool of life
p900
F14.536585365853659
sVdead eye
p901
F13.303880803880803
sVmeso s2 radiant
p902
F19.753846153846155
sVenergy inversion
p903
F7.67515923566879
sVkogake prime gauntlet
p904
F13.559685962920923
sVneo s3 radiant
p905
I16
sVhelios prime systems
p906
F3.6147786946736686
sVagkuza blade
p907
F13.712860310421286
sVneo s3 flawless
p908
I0
sVmeso z1 radiant
p909
F13.285714285714286
sVvirtuos tempo
p910
F137.0
sVkronen prime handle
p911
F7.6730032628741665
sVburston prime set
p912
F10.219732246798603
sVsupra vandal
p913
F104.25934230194319
sVvile precision
p914
F3.4901960784313726
sVendurance drift
p915
F4.572106261859583
sVsudden impact
p916
I3
sVvelocitus receiver
p917
F11.49296875
sVneo t1 flawless
p918
I0
sVaxi h3 intact
p919
F6.692708333333333
sVlith s2 radiant
p920
I19
sVmeso c2 radiant
p921
I15
sVitzal harness
p922
I26
sVaxi b1 radiant
p923
I0
sVbronco prime receiver
p924
F2.848826714801444
sVpush & pull
p925
I28
sVentropy flight
p926
F13.86111111111111
sVlith s1 intact
p927
I5
sVtarget cracker
p928
F5.528181818181818
sVlaser sight
p929
F9.264243614931237
sVshock absorbers
p930
F4.205882352941177
sVstinging truth
p931
F14.11320754716981
sVloaded capacity
p932
I12
sVbraton prime stock
p933
F2.372681281618887
sVstatic discharge
p934
F836.9479166666666
sVscindo prime handle
p935
F7.6846049046321525
sVwildfire
p936
F2.844155844155844
sVnami skyla prime blueprint
p937
F4.407862407862408
sVvaporize
p938
I4
sVnarrow barrel
p939
F42.25925925925926
sVboar prime blueprint
p940
F8.985745614035087
sVsplit chamber
p941
F3.831349678647941
sVpurifying flames
p942
I20
sVredirection
p943
F609.8489010989011
sVdakra prime blade
p944
F23.567592033796018
sVaxi e1 flawless
p945
I0
sVakbronco prime link
p946
F3.2480499219968797
sVrending crane
p947
F10.66015625
sVmischief
p948
F8.41025641025641
sVfrail momentum
p949
F3.435810810810811
sVstriker
p950
I4
sVnova prime neuroptics
p951
F6.928850446428571
sVnikana prime blueprint
p952
F11.15290393614093
sVvolt prime systems
p953
F18.398245380832115
sVmeso s6 radiant
p954
F28.818181818181817
sVnaramon lens
p955
F3.2894642215030565
sVmagnetized discharge
p956
F17.2
sVshred shot
p957
I10
sVrush
p958
F3.5288461538461537
sVgorgon frenzy
p959
I9
sVharrow's temple scene
p960
F35.224137931034484
sVphaedra set
p961
F45.294117647058826
sVrage
p962
F15.266027258960122
sVfang prime blade
p963
F4.021195274496178
sVdetect vulnerability
p964
F50.0679012345679
sVsoma prime blueprint
p965
F7.011845624761177
sVmeso f1 intact
p966
F6.858823529411764
sVmeso n1 flawless
p967
I0
sVlith c2 flawless
p968
I0
sVarcane swindle loki helmet
p969
F205.2568493150685
sVvirulent scourge
p970
F7.363888888888889
sVvasto prime receiver
p971
F4.947761194029851
sVaxi o2 flawless
p972
I8
sVsilva & aegis prime hilt
p973
F3.644723092998955
sVlith g1 intact
p974
F22.0
sVtesla link
p975
F17.154929577464788
sVprimed reach
p976
F111.76842555009614
sVspira prime blade
p977
F54.94509516837482
sVlith s5 flawless
p978
I0
sVarcane menticide nyx helmet
p979
F81.70440251572327
sVneo s8 radiant
p980
I0
sVantimatter absorb
p981
F14.812903225806451
sVtrample
p982
F111.3
sVglaive prime blade
p983
F15.912820512820513
sVankyros prime set
p984
F211.16953316953317
sVhellfire
p985
F6.1454545454545455
sVmeso f3 intact
p986
F12.93046357615894
sVtriple tap
p987
I87
sVneo s4 exceptional
p988
I0
sVonorix handle
p989
F12.174641148325358
sVaxi o3 flawless
p990
I0
sVshelter
p991
F16.927710843373493
sVdespoil
p992
F13.812648945921174
sVavenging truth
p993
F14.950495049504951
sVveil's binding scene
p994
F40.958333333333336
sVtether grenades
p995
F2.3515625
sVzephyr prime systems
p996
F29.448552376128976
sVbo prime blueprint
p997
F6.104060913705584
sVaxi n2 intact
p998
F8.030952380952382
sVproboscis
p999
F79.46666666666667
sVviper wraith
p1000
F61.737671232876714
sVmeso s1 flawless
p1001
I0
sVmeso s6 exceptional
p1002
I0
sVlith s6 exceptional
p1003
I0
sVlith s4 radiant
p1004
I0
sVmeso n4 flawless
p1005
I0
sVneo e1 radiant
p1006
F17.397727272727273
sVneo n6 flawless
p1007
I0
sVgrineer settlement artillery scene
p1008
F6.9411764705882355
sVburston prime stock
p1009
F3.331804281345566
sVmind freak
p1010
F17.359550561797754
sVprimed point blank
p1011
F113.01940709046455
sVmeso c2 intact
p1012
I8
sVmeso n3 radiant
p1013
I20
sVmeso t1 intact
p1014
F2.8452380952380953
sVneo b4 flawless
p1015
I0
sVpoint strike
p1016
F5.336538461538462
sVironclad charge
p1017
F14.476491862567812
sVakbolto prime set
p1018
F145.41355363984675
sVzodiac shred
p1019
F10.421052631578947
sVbronco prime set
p1020
F20.703769740193582
sVarbiters of hexis augment mod
p1021
F12.67142857142857
sVneo d1 flawless
p1022
I0
sVeidolon madurai lens
p1023
F85.31516587677726
sVparry
p1024
I4
sVhyperion thrusters
p1025
F7.332480818414322
sVmeso v2 intact
p1026
F7.610599078341014
sVneo k1 intact
p1027
I2
sVaxi v3 radiant
p1028
I45
sVkaszas set
p1029
F26.94871794871795
sVnova prime systems
p1030
F18.654443957968475
sVkarak wraith stock
p1031
F20.262666666666668
sVfirewalker
p1032
F16.71034482758621
sVcat's eye
p1033
F4.016483516483516
sVenduring affliction
p1034
F7.351851851851852
sVlith n1 exceptional
p1035
I0
sVblind rage
p1036
F22.24293189298675
sVrending turn
p1037
F5.2105263157894735
sVnyx prime set
p1038
F336.3870910384068
sVmutalist alad v assassinate key
p1039
F17.418245804006496
sVemp aura
p1040
F4.575
sVcrushing ruin
p1041
F15.499727965179543
sVenergy conversion
p1042
F56.51265551265551
sVmeso b1 radiant
p1043
I10
sVcalculated spring
p1044
I8
sVdisruptor
p1045
I0
sVinaros tomb scene
p1046
I44
sVnikana prime hilt
p1047
F53.53385763796321
sVmodified munitions
p1048
F8.813432835820896
sVcalm & frenzy
p1049
F16.83273596176822
sVneo n6 radiant
p1050
I30
sVlith a2 intact
p1051
I3
sVfracturing crush
p1052
F17.937007874015748
sVexpel corpus
p1053
F10.870967741935484
sVarcane victory
p1054
F16.824153612935827
sVarcane thrak rhino helmet
p1055
F62.97744360902256
sVaxi s1 radiant
p1056
I0
sVarcane esprit vauban helmet
p1057
F51.529411764705884
sVcorvas set
p1058
F42.89473684210526
sVcrossing snakes
p1059
F2.964028776978417
sVhastened steps
p1060
I8
sVneo n4 exceptional
p1061
I50
sVsands of inaros
p1062
F21.01923076923077
sVtransient fortitude
p1063
F29.93887368009386
sVaxi n4 intact
p1064
I11
sVmetal fiber
p1065
F56.432432432432435
sVarmored acrobatics
p1066
I12
sVgorgon wraith barrel
p1067
F4.303462321792261
sVstrun wraith blueprint
p1068
F16.968434343434343
sVcold snap
p1069
F3.3137254901960786
sVneo b2 flawless
p1070
I20
sVdefiled reckoning
p1071
I2513
sVspira prime set
p1072
F196.7058823529412
sVmeso v4 exceptional
p1073
I0
sVfuror
p1074
F6.428571428571429
sVblunderbuss
p1075
F6.035714285714286
sVblaze
p1076
F9.135314574770787
sVneo b4 exceptional
p1077
I5
sVcressa's garrison scene
p1078
F35.611111111111114
sVlith t1 exceptional
p1079
I0
sVquickening
p1080
F4.727739726027397
sVlarge mortus lungfish
p1081
F2.767543859649123
sVneo s7 flawless
p1082
I0
sVnyx prime chassis
p1083
F212.96808510638297
sVmeso s4 intact
p1084
F9.414285714285715
sVpointed wind
p1085
F3.6792828685258963
sVcentaur handle
p1086
F13.369649805447471
sVneo b1 radiant
p1087
I30
sVdual kamas prime set
p1088
F165.24703737465816
sVthumper
p1089
I4
sVcorrupt charge
p1090
F3.4935483870967743
sVmeasured burst
p1091
I32
sVhollowed bullets
p1092
F6.9519015659955254
sVcombustion rounds
p1093
F7.915525114155251
sVmedium sharrac
p1094
F2.27027027027027
sVaugur message
p1095
F3.759310344827586
sVaxi a3 exceptional
p1096
I0
sVbladed rounds
p1097
F9.786196911196912
sVbane of corrupted
p1098
F14.206349206349206
sVarcane velocity
p1099
F53.78804652466368
sVneo b1 intact
p1100
I7
sVodonata prime harness
p1101
F8.277567975830816
sVaxi k2 flawless
p1102
I50
sVdual rounds
p1103
F28.29127725856698
sVlith l1 exceptional
p1104
I0
sVfocused defense
p1105
F4.758620689655173
sVshotgun spazz
p1106
F3.3391812865497075
sVice wave impedance
p1107
F14.82
sVaxi g1 exceptional
p1108
I0
sVguided ordnance
p1109
F6.857142857142857
sVprisma veritux
p1110
F87.37559241706161
sVfatal acceleration
p1111
F3.0
sVglaive prime blueprint
p1112
F41.89351446099912
sVdera vandal stock
p1113
F13.193359375
sVlith n1 flawless
p1114
I30
sVneo v5 radiant
p1115
I7
sVimpenetrable offense
p1116
I15
sVhydroid prime blueprint
p1117
F4.1216496987325995
sVaxi l2 radiant
p1118
F21.516129032258064
sVmeso h1 flawless
p1119
I0
sVmirage prime neuroptics
p1120
F3.2313542688910695
sVauger strike
p1121
F14.276611694152924
sVvenka prime gauntlet
p1122
F40.95574521890311
sVlink health
p1123
F15.521562245728234
sVaxi a2 intact
p1124
F13.027027027027026
sVfirequake
p1125
F12.759023354564755
sVcyngas set
p1126
F61.5625
sVvectis prime set
p1127
F193.73987789203085
sVneo s2 flawless
p1128
I0
sVpain threshold
p1129
F3.3541666666666665
sVvauban prime systems
p1130
F29.621745089081774
sVeidolon lens blueprint
p1131
F20.459819267387445
sVshrapnel rounds (marelok)
p1132
I11
sVeuphona prime set
p1133
F30.524974515800203
sVserrated rounds
p1134
I10
sVneo l1 radiant
p1135
F18.324324324324323
sVsynoid simulor
p1136
F40.896820448877804
sVaxi v6 intact
p1137
F6.242248062015504
sVlith n3 flawless
p1138
I1
sVfluctus barrel
p1139
F14.152061855670103
sVbane of grineer
p1140
I4
sVseeking fury
p1141
F2.9511149228130362
sVmeso f2 intact
p1142
I29
sVaxi l1 flawless
p1143
I0
sVaxi g1 flawless
p1144
I0
sVmeso v1 intact
p1145
F9.904485049833887
sVradian sentirum
p1146
F4.40417781056903
sVlith f2 intact
p1147
F6.516129032258065
sVboltor prime blueprint
p1148
F63.44981818181818
sVnekros prime blueprint
p1149
F27.89692965102477
sVpower of three
p1150
F17.5
sVaxi t1 exceptional
p1151
I0
sVmedium goopolla
p1152
I2
sVtotal eclipse
p1153
F14.169491525423728
sVaccelerated blast
p1154
F2.518867924528302
sVkinetic collision
p1155
I18
sVparallax scope
p1156
F3.7058823529411766
sVaxi v6 exceptional
p1157
I0
sVsicarus prime barrel
p1158
F10.153846153846153
sVsteel charge
p1159
F17.422720962517353
sVloki prime set
p1160
F239.30434782608697
sVarcane grace
p1161
F132.98772305496075
sVloose magazine
p1162
I0
sVinsulation
p1163
I1
sVmeso n5 flawless
p1164
I0
sVsicarus prime receiver
p1165
F33.17083882301274
sVneo n5 exceptional
p1166
I0
sVneo s5 exceptional
p1167
I0
sVlith a1 exceptional
p1168
I13
sVvirtuos ghost
p1169
F141.57142857142858
sVdestreza prime set
p1170
F129.34632796780684
sVfortitude
p1171
F3.9383561643835616
sVvay hek frequency triangulator
p1172
I6733
sVproof fragment
p1173
F2.126315789473684
sVvirtuos strike
p1174
F246.26167664670658
sVmedi-pet kit
p1175
F2.501689189189189
sVfang prime handle
p1176
F4.208150152181265
sVlith a1 radiant
p1177
I19
sVrift torrent
p1178
F17.163522012578618
sVsonic fracture
p1179
F16.62121212121212
sVfurious javelin
p1180
F13.380952380952381
sVstealth drift
p1181
F3.2764423076923075
sVcunning drift
p1182
F8.684860968074151
sVnarrow minded
p1183
F21.556333160532226
sVpyrana prime barrel
p1184
F16.677344877344876
sVparis prime string
p1185
F4.160611854684513
sVlarge glappid
p1186
F3.815250032641337
sVzephyr prime neuroptics
p1187
F4.267140921409214
sVarcane ice
p1188
F5.068965517241379
sVvicious spread
p1189
F8.316365979381443
sVlatron wraith set
p1190
F57.68208516886931
sVlith s6 flawless
p1191
I5
sVenergy siphon
p1192
F13.57012247714335
sVcernos prime blueprint
p1193
F3.0679236710586095
sVneo s8 intact
p1194
F4.91743119266055
sVchilling reload
p1195
F7.767537313432836
sVlimbo prime set
p1196
F201.30894060012247
sVflash accelerant
p1197
F14.236363636363636
sVmeso d1 intact
p1198
F6.862745098039215
sVarcane deflection
p1199
F8.857034795763994
sVprimed target cracker
p1200
F109.81610102604577
sVeverlasting ward
p1201
F18.351063829787233
sVomega beacon
p1202
I147
sVcrash shot
p1203
I7
sVswipe
p1204
I3
sVgrineer forest industry scene
p1205
F11.183673469387756
sVaxi n1 exceptional
p1206
I0
sVlith h1 flawless
p1207
I0
sVreflex coil
p1208
I3
sVfragor prime set
p1209
F20.033690987124462
sVneo s6 exceptional
p1210
I0
sVbraton prime barrel
p1211
F3.8835078534031413
sVmeso v1 flawless
p1212
I0
sVheavy trauma
p1213
F3.817829457364341
sVcyngas barrel
p1214
F12.769337016574585
sVneo v3 exceptional
p1215
I0
sVreawaken
p1216
F59.589371980676326
sVmeso e1 flawless
p1217
I0
sVsteel fiber
p1218
F65.92465753424658
sVhunter's bonesaw
p1219
F7.074074074074074
sVscimitar fuselage
p1220
F6.204620462046204
sVlith n2 radiant
p1221
I0
sVsavagery
p1222
F530.7894736842105
sVdakra prime handle
p1223
F6.703527168732125
sVcomet blast
p1224
F8.347619047619048
sVmedium khut-khut
p1225
I3
sVsmall goopolla
p1226
F1.0
sVstalk
p1227
F9.266666666666667
sVsilent battery
p1228
F6.1375838926174495
sVfluctus limbs
p1229
F12.673825503355705
sVlith s5 radiant
p1230
I0
sVperpetual agony
p1231
I4
sVthermite rounds
p1232
F9.492261280167892
sVcephalon suda augment mod
p1233
F11.30841121495327
sVaxi o1 flawless
p1234
I10
sVaxi s1 exceptional
p1235
I0
sVmeso v4 radiant
p1236
I0
sVmeso s1 exceptional
p1237
I0
sVballistic bullseye
p1238
F14.85
sVlato vandal barrel
p1239
F103.95658442806793
sVhydroid prime chassis
p1240
F3.818419434194342
sVrakta ballistica
p1241
F35.84257871064468
sVoberon prime chassis
p1242
F8.858181063122924
sVlarva burst
p1243
F14.814732142857142
sVfull capacity
p1244
I0
sVneo n1 flawless
p1245
I0
sVshell compression
p1246
I4
sVmantis set
p1247
F34.96782496782497
sVreach
p1248
F438.5
sVcharm
p1249
F3.227722772277228
sVaxi h3 flawless
p1250
I0
sVnova prime chassis
p1251
F244.17820699708454
sVhunter adrenaline
p1252
F4.024808524808525
sVvazarin transmute core
p1253
I5
sVboar prime barrel
p1254
F20.933053359683793
sVsheev set
p1255
F45.36813186813187
sVash prime set
p1256
F153.92737769674872
sVmeso n4 exceptional
p1257
I0
sVkronen prime set
p1258
F155.24267653407338
sVaxi l2 intact
p1259
F12.326347305389222
sVneo n1 exceptional
p1260
I0
sVgorgon wraith stock
p1261
F4.4876288659793815
sVmeso t2 exceptional
p1262
I0
sVdischarge strike
p1263
I12
sVlith a1 intact
p1264
F6.669172932330827
sVdera vandal receiver
p1265
F12.397916666666667
sVtrinity prime neuroptics
p1266
F18.92281651997292
sVlith n3 intact
p1267
F3.8181818181818183
sVcombustion beam
p1268
F3.337150127226463
sVneo s1 exceptional
p1269
I0
sVrelentless combination
p1270
F3.533333333333333
sVaxi n2 flawless
p1271
I0
sVmadurai transmute core
p1272
F7.666666666666667
sVsaryn prime neuroptics
p1273
F10.275800130633574
sVaxi h2 intact
p1274
I12
sVaxi h1 exceptional
p1275
I0
sVlith b3 exceptional
p1276
I0
sVburdened magazine
p1277
F2.7777777777777777
sVneo s4 flawless
p1278
I0
sVfinal tap
p1279
I8
sVsmall sharrac
p1280
F1.921875
sVintensify
p1281
F2.864179104477612
sVsnap shot
p1282
F11.5
sVarmored recovery
p1283
I15
sVbanshee prime chassis
p1284
F18.61923224568138
sVstunning speed
p1285
F2.5481481481481483
sVaxi v3 intact
p1286
F10.566265060240964
sVmeso d1 exceptional
p1287
I15
sVsovereign outcast
p1288
F4.5442307692307695
sVmedium tralok
p1289
F1.7435064935064934
sVneo s2 exceptional
p1290
I0
sVtrinity prime systems
p1291
F13.271769177608846
sVexodia hunt
p1292
F424.4343696027634
sVneutralizing justice
p1293
F13.028735632183908
sVvasto prime barrel
p1294
F14.443478260869565
sVtainted shell
p1295
F7.4222222222222225
sVarcane vanguard rhino helmet
p1296
F695.3426966292135
sVsheev hilt
p1297
F12.866666666666667
sVenhanced durability
p1298
F4.604166666666667
sVneo s5 radiant
p1299
I35
sVaxi r1 intact
p1300
F94.37610619469027
sVaklex prime blueprint
p1301
F11.41841093549765
sVgilded truth
p1302
F13.920863309352518
sVspring-loaded broadhead
p1303
F38.18421052631579
sVlith b3 flawless
p1304
I0
sVmeso f2 flawless
p1305
I0
sVnightwatch napalm
p1306
F8.700956937799043
sVfour riders
p1307
F17.91682600382409
sVparis prime set
p1308
F11.923434222355409
sVneo m1 exceptional
p1309
I0
sVvectis prime stock
p1310
F55.54625954198473
sVakstiletto prime link
p1311
F6.782655631522131
sVlith n2 flawless
p1312
I0
sVaxi o3 radiant
p1313
I0
sVmeso d1 flawless
p1314
I0
sVcyngas receiver
p1315
F12.707246376811595
sVfollow through
p1316
I15
sVtarget fixation
p1317
F14.38888888888889
sVaxi k2 radiant
p1318
F28.56896551724138
sVprimed slip magazine
p1319
F64.664
sVaxi v6 radiant
p1320
F9.75
sVmedium glappid
p1321
F2.346958174904943
sVcataclysmic continuum
p1322
F15.194214876033058
sVhydraulic gauge
p1323
F8.6
sVarcane phantasm
p1324
F8.704545454545455
sVcunning aspect
p1325
I6
sVlith c1 radiant
p1326
I25
sVbleeding edge
p1327
F12.148148148148149
sVlith s6 intact
p1328
I4
sVmeso o2 exceptional
p1329
I0
sVmedium murkray
p1330
F1.9068306010928961
sVbody count
p1331
F13.222627737226277
sVvenka prime set
p1332
F87.93170320404722
sVboar prime receiver
p1333
F7.21806167400881
sVsmite corpus
p1334
I3
sVarcane gauss mag helmet
p1335
F81.16
sVneo m1 intact
p1336
F2.544230769230769
sVcovert lethality
p1337
F6.696536650975117
sVtigris prime stock
p1338
F2.473970944309927
sVconcussion rounds
p1339
I4
sVarcane squall frost helmet
p1340
F255.12587412587413
sVblind justice
p1341
F3.725806451612903
sVwinds of purity
p1342
F16.390243902439025
sVarcane energize
p1343
F261.1606898907104
sVrupture
p1344
I21431
sVlith n1 intact
p1345
F37.81777777777778
sVlith s4 intact
p1346
F5.474137931034483
sVspeed drift
p1347
F17.676778819635963
sVmeso o2 intact
p1348
I2
sVpoint blank
p1349
F4.574712643678161
sVheightened reflexes
p1350
I8
sVbraton vandal barrel
p1351
F9.823008849557523
sVmeso g1 intact
p1352
F3.4281914893617023
sVlith h1 exceptional
p1353
I0
sVamesha set
p1354
I94
sVakstiletto prime barrel
p1355
F10.518496317862647
sVmeso g1 flawless
p1356
I0
sVgorgon wraith set
p1357
F9.673410404624278
sVstrun wraith receiver
p1358
F18.403658536585365
sVfrost prime blueprint
p1359
F60.432753164556964
sVconcealed explosives
p1360
F9.825740318906606
sVneo z1 intact
p1361
F3.2785299806576402
sVmeso n2 radiant
p1362
I0
sVsynoid heliocor
p1363
F43.76227106227106
sVlith m1 intact
p1364
F7.804878048780488
sVboltor prime stock
p1365
F20.013279802347128
sVfast deflection
p1366
I3
sVhunter command
p1367
F3.788265306122449
sVmantis fuselage
p1368
F13.290978398983482
sVenergy channel
p1369
F4.626984126984127
sVpatagium
p1370
F3.1538461538461537
sVaxi k3 intact
p1371
F10.598591549295774
sVmeso d2 radiant
p1372
I21
sVtoxic flight
p1373
F31.604395604395606
sVrifle riven mod (veiled)
p1374
F53.8060346513356
sVvolt prime neuroptics
p1375
F61.572776845637584
sVpiercing hit
p1376
I5
sVmagus replenish
p1377
F279.8
sVdefiled snapdragon
p1378
F3.827784156142365
sVlith f1 radiant
p1379
I0
sVaxi n3 radiant
p1380
I15
sVneo v7 exceptional
p1381
I0
sVvigilante supplies
p1382
F21.638805970149253
sVaxi v1 exceptional
p1383
I0
sVheartseeker
p1384
I15
sVargent scourge
p1385
I8
sVshotgun scavenger
p1386
F4.961538461538462
sVaxi c2 intact
p1387
I13
sVaxi v1 flawless
p1388
I0
sVkavasa prime collar buckle
p1389
F15.144420131291028
sVarcane pulse
p1390
F22.19916796671867
sVhowl
p1391
F6.434782608695652
sVlith v1 intact
p1392
F5.513698630136986
sVcalculated shot
p1393
I18
sVrhino prime set
p1394
F490.47067991428014
sVreaper prime set
p1395
F40.78360488798371
sVlegendary fusion core
p1396
F344.8427541729894
sVkogake prime blueprint
p1397
F5.725631768953068
sVaxi a2 exceptional
p1398
I0
sVentropy burst
p1399
F19.37212121212121
sVcorpus void key
p1400
I466
sVgladiator might
p1401
F8.981884057971014
sVterritorial aggression
p1402
F4.3076923076923075
sVgaia's tragedy
p1403
F3.7028985507246377
sVneo v4 intact
p1404
I10
sVequilibrium
p1405
F17.622241681260945
sVrebound
p1406
I4
sVneo s8 flawless
p1407
I0
sVrapid resilience
p1408
F7.769886363636363
sVneo s8 exceptional
p1409
I0
sVcurative undertow
p1410
F16.80952380952381
sVneo s3 intact
p1411
F8.256476683937823
sVaxi e2 radiant
p1412
I9
sVsoma prime set
p1413
F191.00233644859813
sVripper rounds
p1414
I0
sVcorvas receiver
p1415
F12.692660550458715
sVshotgun riven mod (veiled)
p1416
F108.25264521701577
sVtactical reload
p1417
F13.704918032786885
sVmeso n3 exceptional
p1418
I0
sVprimed rifle ammo mutation
p1419
F56.06730769230769
sVrakta dark dagger
p1420
F40.025325278810406
sVxiphos avionics
p1421
F41.77647058823529
sVmeso n2 intact
p1422
F9.670454545454545
sVserrated edges
p1423
I10
sVaxi s1 flawless
p1424
I2
sVvolcanic edge
p1425
F6.3648393194707
sVapex predator
p1426
I5
sVtigris prime barrel
p1427
F3.7112561174551386
sVvoltage sequence
p1428
F13.0
sVmeso s2 exceptional
p1429
I2
sVneo v2 exceptional
p1430
I2
sVadhesive blast
p1431
F4.928571428571429
sVlex prime set
p1432
F9.866580976863753
sVexodia brave
p1433
F303.8953488372093
sVmirage prime systems
p1434
F6.047108913610768
sVflailing branch
p1435
F5.626050420168068
sVaxi e2 exceptional
p1436
I0
sVsure footed
p1437
F9.496503496503497
sVkavasa prime collar blueprint
p1438
F4.643463497453311
sVlith c1 intact
p1439
F9.95
sVmag prime systems
p1440
F49.73441305406722
sVaxi c1 flawless
p1441
I0
sVmagus husk
p1442
F219.23090277777777
sVarc coil
p1443
I12
sVkaszas blade
p1444
F12.558891454965359
sVvauban prime set
p1445
F146.15336039693278
sVlith l1 intact
p1446
I0
sVsmoke shadow
p1447
F15.23076923076923
sVparis prime lower limb
p1448
F1.5448569218870842
sVphaedra receiver
p1449
F12.236951983298539
sVnikana prime set
p1450
F138.72462344466274
sVmantis avionics
p1451
F9.16486902927581
sVpiercing caliber
p1452
F40.395833333333336
sVakstiletto prime set
p1453
F135.4501589136088
sVswing line
p1454
F17.12
sVfleeting expertise
p1455
F29.944737895158063
sVconvulsion
p1456
I6
sVgrim fury
p1457
F3.8
sVstrun wraith barrel
p1458
F16.13594470046083
sVprolonged paralysis
p1459
F17.23728813559322
sVcapacitance
p1460
F15.693825042881647
sVmirage prime set
p1461
F48.826395991000204
sVlith h1 intact
p1462
F4.344262295081967
sVneo b1 exceptional
p1463
I0
sVaxi n1 flawless
p1464
I0
sVkogake prime boot
p1465
F8.837363365352767
sVneo b5 radiant
p1466
I20
sVmeso e1 exceptional
p1467
I0
sVbattering maneuver
p1468
F4.545454545454546
sVrhino prime chassis
p1469
F76.70334804048794
sVlith v4 intact
p1470
F4.922330097087379
sVshield disruption
p1471
F7.931159420289855
sVakstiletto prime blueprint
p1472
F15.967267786561266
sVneo b2 radiant
p1473
I15
sVglacial edge
p1474
F4.96078431372549
sVfunnel clouds
p1475
F15.853061224489796
sVaxi n3 flawless
p1476
I0
sVvalkyr prime blueprint
p1477
F1.9354898336414048
sVscindo prime blade
p1478
F48.244615384615386
sVmedium cuthol
p1479
F2.1732927970065483
sVmag prime neuroptics
p1480
F13.910227835562159
sVinfested ship bridge scene
p1481
F46.66
sVmeso s3 exceptional
p1482
I0
sVmeso v1 exceptional
p1483
I0
sVlimbo prime neuroptics
p1484
F66.7044624424329
sVlith f1 flawless
p1485
I0
sVdakra prime set
p1486
F44.800126502213786
sVneo s5 intact
p1487
I25
sVmeso h1 radiant
p1488
I0
sVanemic agility
p1489
F5.344547563805104
sVprimed morphic transformer
p1490
F128.42355371900825
sVelytron systems
p1491
F50015.0
sVtigris prime set
p1492
F32.06009889691898
sVrime vault
p1493
I22
sVguided effigy
p1494
F279.60526315789474
sVmeso n3 intact
p1495
F9.06060606060606
sVmeteor munitions
p1496
I10
sVonorix blade
p1497
F13.143491124260356
sVtidal impunity
p1498
I15
sVmeso c3 flawless
p1499
I0
sVneo v1 flawless
p1500
I63
sVastral slash
p1501
F7.714743589743589
sVsancti magistar
p1502
F48.83410852713178
sVvigilante offense
p1503
F23.59493670886076
sVsilva & aegis prime blueprint
p1504
F5.308328736900165
sVsniper ammo mutation
p1505
F2.4375
sVaxi c2 flawless
p1506
I0
sVafterburn
p1507
F14.25
sVneo v3 flawless
p1508
I0
sVkavasa prime collar set
p1509
F27.44090909090909
sVlarge yogwun
p1510
I3
sVneo s2 radiant
p1511
I41
sVhallowed reckoning
p1512
F15.236486486486486
sVmedium norg
p1513
F2.016596417281349
sVparis prime upper limb
p1514
F1.998117469879518
sVneo n2 exceptional
p1515
I0
sVdeadly sequence
p1516
F16.182634730538922
sVlua nursery scene
p1517
F117662.11764705883
sVtelos akbolto
p1518
F39.93933386201427
sVnyx prime blueprint
p1519
F4.9098781270044904
sVlith z1 flawless
p1520
I0
sVaxi h2 flawless
p1521
I0
sVvauban prime neuroptics
p1522
F27.21456692913386
sVsharpened blade
p1523
I10
sVvectis prime receiver
p1524
F95.84524158125915
sVshield of shadows
p1525
F14.567240031274434
sVshadow harvest
p1526
I2506
sVtainted mag
p1527
F5.820422535211268
sVcoiling viper
p1528
F2.341628959276018
sVquickdraw
p1529
I3
sVprimed bane of infested
p1530
F60.55194805194805
sVshattering impact
p1531
F4.012820512820513
sVbraton prime set
p1532
F10.296717840127052
sVlith n1 radiant
p1533
I68
sVovercharge detectors
p1534
I13
sVfocus energy
p1535
F3.7674418604651163
sVmeso v3 intact
p1536
F10.714285714285714
sVlarge charc eel
p1537
I2
sVmara detron
p1538
F82.77094594594594
sVmagazine warp
p1539
I4
sVeternal war
p1540
F15.822342901474011
sVpressure point
p1541
F3.405940594059406
sVsmall murkray
p1542
F1.9181850344949585
sVcontagious spread
p1543
F4.384863123993559
sVslip magazine
p1544
I15
sVmeso s6 intact
p1545
F6.0
sVlith c1 flawless
p1546
I0
sVhawk eye
p1547
I5
sVdepleted reload
p1548
F4.7168803418803416
sVaugur seeker
p1549
F29.74418604651163
sVsystem reroute
p1550
F18.440848214285715
sVlith f1 intact
p1551
I4
sVmobilize
p1552
F2.6285714285714286
sVkaszas handle
p1553
F11.450424929178471
sVfreeze force
p1554
F15.0
sVneo a1 flawless
p1555
I0
sVgalvanized blade
p1556
F6.776859504132231
sVvelocitus stock
p1557
F13.026772793053546
sVlatron prime barrel
p1558
F20.146600124766064
sVcondition overload
p1559
F66.563155441622
sVodonata prime blueprint
p1560
F9.118421052631579
sVmagus cloud
p1561
F151.875
sVmeso k1 flawless
p1562
I0
sVcoaction drift
p1563
F4.216677398583387
sVaxi l2 exceptional
p1564
F35.0
sVgamma beacon
p1565
I1740
sVaxi n5 intact
p1566
F6.998585572842998
sVbronco prime barrel
p1567
F10.035443037974684
sVlith g2 flawless
p1568
I0
sVarcane pendragon excalibur helmet
p1569
F440.9895833333333
sVsmall norg
p1570
F1.966878716636703
sVtoxic sequence
p1571
F13.722222222222221
sVprimal rage
p1572
F16.155339805825243
sVneo s7 intact
p1573
F2.1059602649006623
sVmomentary pause
p1574
F22.5
sVcharged chamber
p1575
F3.172222222222222
sVarcane awakening
p1576
F23.106292517006803
sVmeso c2 exceptional
p1577
I0
sVlooter
p1578
F54.773863636363636
sVcorvas barrel
p1579
F12.698992443324936
sVseeking force
p1580
F4.309322033898305
sVseismic wave
p1581
F8.177777777777777
sVred veil augment mod
p1582
F1054.4176470588236
sVsaryn prime systems
p1583
F4.052757793764988
sVtempered blade
p1584
I4
sVaxi t1 intact
p1585
I8
sVmeso v1 radiant
p1586
F33.75
sVprimed cryo rounds
p1587
F106.75
sVshell rush
p1588
F32.20802919708029
sVspry sights
p1589
F12.947368421052632
sVneo n3 radiant
p1590
I0
sVlith s2 flawless
p1591
I0
sVdual decurion set
p1592
F56.353658536585364
sVloose chamber
p1593
I17
sVgalatine prime handle
p1594
F3.973892405063291
sVlith v2 exceptional
p1595
I0
sVgrineer forest water pump scene
p1596
F11.529411764705882
sVmeso n4 intact
p1597
F4.970588235294118
sVtigris prime receiver
p1598
F3.790625
sVlith f2 flawless
p1599
I0
sVneo h1 flawless
p1600
I0
sVcarrier prime set
p1601
F117.05035151054531
sVneo v2 intact
p1602
F3.396551724137931
sVcrowd dispersion
p1603
I7
sVdrifting contact
p1604
F23.48481012658228
sVballistica prime blueprint
p1605
F11.10860722421087
sVsteel meridian augment mod
p1606
F11.453271028037383
sVcleanse grineer
p1607
I4
sVlato vandal blueprint
p1608
F104.74946368372663
sVtempered bound
p1609
I7
sVpathogen rounds
p1610
F9.653966597077245
sVorthos prime blueprint
p1611
F3.3366147983486822
sVstabilizer
p1612
F2.7435897435897436
sVneo a1 intact
p1613
I10
sVlith f2 exceptional
p1614
I0
sVcontinuity
p1615
F7.680558449677016
sVshattering storm
p1616
F6.941011235955056
sVsaryn prime set
p1617
F155.1109575937932
sVboar prime stock
p1618
F39.28089005235602
sVcarrier prime cerebrum
p1619
F80.44541361845808
sVcleaving whirlwind
p1620
F3.6498646820027063
sVodonata prime wings
p1621
F26.647671840354768
sVvasto prime set
p1622
F81.04698162729659
sVlith l1 flawless
p1623
I0
sVarcane aegis
p1624
F26.83562197092084
sVvenomous rise
p1625
I22
sVarcane reverb banshee helmet
p1626
F69.42105263157895
sVreflex guard
p1627
F35.01960784313726
sVaxi n5 flawless
p1628
I0
sVagile aim
p1629
F9.64
sVargon scope
p1630
F223.9083490269931
sVneo n6 exceptional
p1631
I0
sVvigilante vigor
p1632
F3.2333333333333334
sVscindo prime blueprint
p1633
F5.641653905053599
sVkill switch
p1634
I9
sVmeso s4 radiant
p1635
I34
sVarcane arachne
p1636
F7.500924214417745
sVtiberon prime barrel
p1637
F20.55192197360872
sVbraton prime blueprint
p1638
F1.8940501043841336
sVward recovery
p1639
I19
sVentropy detonation
p1640
F13.589285714285714
sVneo e1 intact
p1641
F11.880260521042084
sVdelta beacon
p1642
I41
sVgunslinger
p1643
F4.1234177215189876
sVmeso s5 flawless
p1644
I0
sVmeso v2 flawless
p1645
I0
sVdual kamas prime handle
p1646
F7.300705467372134
sVlith t1 radiant
p1647
I6
sVneo v4 flawless
p1648
I3
sVhunter track
p1649
F4.23155737704918
sVchilling grasp
p1650
F3.0285714285714285
sVprimed fast hands
p1651
F91.45222929936305
sVbanshee prime set
p1652
F55.5076255148614
sVneo v3 intact
p1653
I6
sVneo v1 intact
p1654
F42.29795396419437
sVbo prime ornament
p1655
F17.51109778044391
sVrecharge barrier
p1656
I22
sVscimitar set
p1657
F61.81644359464627
sVmeso d2 intact
p1658
F8.375
sVlith s7 intact
p1659
F2.2433155080213902
sVeidolon naramon lens
p1660
F72.79508196721312
sVgun glide
p1661
F11.92
sVcritical deceleration
p1662
F3.38302752293578
sVthermagnetic shells
p1663
F3.403225806451613
sVmeteor crash
p1664
F5.855555555555555
sVvasto prime blueprint
p1665
F38.52040245947457
sVbright purity
p1666
F15.12781954887218
sVarcane trickery
p1667
F15.715331183329198
sVelectromagnetic shielding
p1668
F8.767955801104973
sVcrash course
p1669
F4.348654708520179
sVarcane avenger
p1670
F31.08653846153846
sVmirage prime blueprint
p1671
F21.942404426559357
sVovercharged
p1672
I20
sVpolar magazine
p1673
F4.482758620689655
sVsynoid gammacor
p1674
F41.073264781491005
sVlith v3 exceptional
p1675
I10
sVscorch
p1676
F7.247441670077773
sVsoma prime receiver
p1677
F37.52996359563148
sVoverextended
p1678
F21.423298880275624
sVslicing feathers
p1679
F5.928117048346056
sVsmall khut-khut
p1680
F1.7
sVbraton prime receiver
p1681
F4.412698412698413
sVcontinuous misery
p1682
F4.0
sVvazarin lens
p1683
F4.237798546209762
sVneo b5 exceptional
p1684
I0
sVhydroid prime set
p1685
F70.70587155963302
sVlith s4 exceptional
p1686
I0
sVplains of eidolon scene
p1687
F31.763157894736842
sVlith h1 radiant
p1688
I1
sVaxi v4 intact
p1689
F9.804878048780488
sVrakta cernos
p1690
F36.064625850340136
sVskull shots (viper)
p1691
I10
sVcalculated redirection
p1692
F64.75757575757575
sVjustice blades
p1693
F12.235955056179776
sVlith s1 flawless
p1694
I0
sVrepelling bastille
p1695
F15.667464114832535
sVheated charge
p1696
F3.161290322580645
sVaxi r1 exceptional
p1697
I50
sVrifle amp
p1698
F9.239182692307692
sVvalkyr prime systems
p1699
F20.09601726779
sVsmall cuthol
p1700
F1.9748767880754898
sVarmored evade
p1701
I12
sVmeso k1 intact
p1702
I2
sVlith l1 radiant
p1703
I0
sVintruder
p1704
I40
sVmagus vigor
p1705
F204.08929517753046
sVrime rounds
p1706
F14.152720283855707
sVfull contact
p1707
F4.424914675767918
sVneo v7 radiant
p1708
I8
sVrumbled
p1709
I30
sVlith b2 exceptional
p1710
I0
sVhydraulic chamber
p1711
I9
sVmeso f2 radiant
p1712
I0
sVshred
p1713
F3.9401098901098903
sVtigris prime blueprint
p1714
F19.09646822948797
sVenguard
p1715
I0
sVneo b4 intact
p1716
F4.988721804511278
sVpyrana prime receiver
p1717
F42.70193883123976
sVsoaring strike
p1718
I37
sVkinetic diversion
p1719
F192.21978021978023
sVeuphona prime barrel
p1720
F3.771692745376956
sVdeceptive bond
p1721
I25
sVaxi v7 exceptional
p1722
I0
sVaxi n1 intact
p1723
F12.272026431718063
sVsybaris prime barrel
p1724
F12.331338742393509
sVruinous extension
p1725
F18.928802588996763
sVsybaris prime stock
p1726
F2.7624260355029584
sVlatron wraith stock
p1727
F12.78012048192771
sVcontagion cloud
p1728
F14.504926108374384
sVtrue steel
p1729
F3.8
sVaviator
p1730
F8.502237136465324
sVfluctus stock
p1731
F11.487234042553192
sVferocity
p1732
F6.5
sVmeso f1 radiant
p1733
I0
sVorokin derelict plaza scene
p1734
F47.57142857142857
sVarcane guardian
p1735
F41.371848193397454
sVgrineer forest factory scene
p1736
F11.131147540983607
sVhaven
p1737
F16.35211267605634
sVphoenix renewal
p1738
F14.135838150289016
sVlink shields
p1739
F12.309608540925266
sVcernos prime upper limb
p1740
F1.9671903881700554
sVarcane aura trinity helmet
p1741
F217.68283582089552
sVneo n2 flawless
p1742
I0
sVmagus cadence
p1743
F178.07407407407408
sVbraton vandal blueprint
p1744
F130.86240786240785
sVtranquil cleave
p1745
F7.708786610878661
sVarcane strike
p1746
F26.46057347670251
sVarcane eruption
p1747
F14.10906862745098
sVlith v1 exceptional
p1748
I0
sVneutralize
p1749
I5
sVexodia triumph
p1750
F252.17391304347825
sVbroken war set
p1751
F215.89655172413794
sViron shrapnel
p1752
F14.300553165334973
sVsancti castanas
p1753
F54.116850891044436
sVstreamlined form
p1754
F18.4792663476874
sVdeep freeze
p1755
F4.538043478260869
sVbarrel diffusion
p1756
F4.733026467203683
sVaxi s1 intact
p1757
F10.16326530612245
sVphysique
p1758
F5.389380530973451
sVarbiter's tribunal scene
p1759
F39.75
sVdera vandal set
p1760
F37.86897001303781
sVankyros prime blueprint
p1761
F6.711286089238845
sVaxi c2 exceptional
p1762
I0
sVantimatter mine
p1763
F16.0
sVprovoked
p1764
F49.333333333333336
sVlith n2 intact
p1765
I5
sVlith t1 flawless
p1766
I0
sVlith m1 flawless
p1767
I35
sVakstiletto prime receiver
p1768
F36.413166690887955
sVmeso s5 intact
p1769
F6.044776119402985
sVmeso m1 intact
p1770
F27.03846153846154
sVthundermiter (miter)
p1771
I22
sVbroken war blade
p1772
F92.00880281690141
sVkarak wraith barrel
p1773
F14.568306010928962
sVvolt prime blueprint
p1774
F36.698047419804745
sVpiercing roar
p1775
F14.714285714285714
sVaxi b2 radiant
p1776
I32
sVrifle ammo mutation
p1777
F3.546511627906977
sVwyrm prime cerebrum
p1778
F15.467070401211204
sVlith a2 exceptional
p1779
I4
sVvelocitus barrel
p1780
F14.180806675938804
sVno return
p1781
I1
sVoberon prime systems
p1782
F29.486255007597734
sVemergent aftermath
p1783
I13
sVelectro pulse
p1784
I12
sVmeso s5 radiant
p1785
I0
sVnyx prime systems
p1786
F14.640642101422838
sVvigor
p1787
F5.8807390817469205
sVlith b3 radiant
p1788
I20
sVnight stalker
p1789
I7
sVmeso b1 intact
p1790
F8.099290780141844
sVice storm
p1791
F3.3933823529411766
sVneo v2 flawless
p1792
I0
sVarcane rage
p1793
F28.700267710049424
sVvicious frost
p1794
F6.953706988293721
sVaxi n3 intact
p1795
F10.307692307692308
sVlith g1 flawless
p1796
I0
sVlasting covenant
p1797
F15.150115473441108
sVdual decurion receiver
p1798
F13.427147239263803
sVaxi r1 flawless
p1799
I116
sVneo t1 intact
p1800
I9
sVdispatch overdrive
p1801
F3.130434782608696
sVlith g1 exceptional
p1802
I0
sVhandspring
p1803
F5.218929254302103
sVfrost prime neuroptics
p1804
F8.73392205797658
sVspeed trigger
p1805
F4.066666666666666
sVlith g2 radiant
p1806
F24.1875
sVlith v1 radiant
p1807
I30
sVflame repellent
p1808
I8
sVaxi h2 exceptional
p1809
I0
sVcharged shell
p1810
F5.422496570644719
sVlith v4 exceptional
p1811
I0
sVlith f2 radiant
p1812
I0
sVprimed pressure point
p1813
F97.16255904703225
sVglaive prime disc
p1814
F11.86271676300578
sVsaryn prime blueprint
p1815
F27.780295125950214
sVvanquished prey
p1816
F22.142857142857142
sVxiphos engines
p1817
F27.095652173913045
sVgrineer settlement reactor scene
p1818
F42.09803921568628
sVdecisive judgement
p1819
F5.499412455934195
sVfever strike
p1820
F4.807142857142857
sVneo n1 radiant
p1821
F59.825581395348834
sVtargeting receptor
p1822
I30
sVsequence burn
p1823
F13.652173913043478
sVlith t1 intact
p1824
F39690.2078125
sVmaiming strike
p1825
F348.8056433672872
sVmeso v5 exceptional
p1826
I0
sVeroding blight
p1827
F13.333333333333334
sVgrowing power
p1828
F66.35365853658537
sVneo n7 radiant
p1829
I0
sVamber ayatan star
p1830
F2.9840742633282233
sVpyrana prime blueprint
p1831
F37.42918340026774
sVaxi v4 radiant
p1832
I23
sVmeso g1 radiant
p1833
I7
sVtrinity prime chassis
p1834
F13.854970263381478
sVirradiating disarm
p1835
F14.28370786516854
sVarcane nullifier
p1836
F14.639682894149173
sVlato vandal set
p1837
F273.3958779443255
sVmeso s6 flawless
p1838
I0
sVneo v2 radiant
p1839
I10
sVneo v4 exceptional
p1840
I0
sVaxi o1 radiant
p1841
I13
sVlith s1 radiant
p1842
I0
sVsniper scavenger
p1843
F4.185185185185185
sVvenomous clip
p1844
F7.910256410256411
sVmeso g1 exceptional
p1845
I0
sVsmite infested
p1846
I3
sVprimed regen
p1847
F95.7104
sVaxi o3 intact
p1848
F12.066666666666666
sVprimed bane of corpus
p1849
F68.07913669064749
sVlith g2 intact
p1850
F15.680297397769516
sVsybaris prime receiver
p1851
F4.355697550585729
sVpiercing step
p1852
I3
sVaxi g1 intact
p1853
F8.440217391304348
sVmedium charc eel
p1854
F1.6511627906976745
sVfinal act
p1855
I18
sVarcane locust ash helmet
p1856
F74.27722772277228
sVconcentrated arrow
p1857
F16.173275862068966
sVmeso c1 flawless
p1858
I0
sVlith s3 radiant
p1859
I0
sVstar crimzian
p1860
F1.8057761732851985
sVsicarus prime set
p1861
F74.013671875
sVmeso o2 flawless
p1862
I0
sVneo s6 intact
p1863
I9
sVfurax wraith blueprint
p1864
F4.431677018633541
sVmeso n2 flawless
p1865
I0
sVsnipetron vandal barrel
p1866
F17.367036011080334
sVaxi n4 exceptional
p1867
I0
sVsheev heatsink
p1868
F11.764397905759163
sVmaul
p1869
F10.63163481953291
sVlith z1 intact
p1870
F4.602766798418973
sVvirtuos shadow
p1871
F232.8859223300971
sVneo b4 radiant
p1872
I9
sVcounterweight
p1873
I10
sVneo z1 flawless
p1874
I7
sVauxiliary power
p1875
F49.581947743467936
sVmeso z1 exceptional
p1876
I0
sVlith v3 intact
p1877
F2.8849557522123894
sVenergy transfer
p1878
F16.31111111111111
sVhelios prime carapace
p1879
F3.7679156908665106
sVtransistor shield
p1880
F16.16521739130435
sVsancti tigris
p1881
F44.14180537772087
sVreaper prime handle
p1882
F11.06511746680286
sVlith s7 flawless
p1883
I0
sVshield overload
p1884
I20
sVmetal auger
p1885
F2.6956521739130435
sVneo s4 radiant
p1886
I0
sVhushed invisibility
p1887
F15.065384615384616
sVreflection
p1888
I3
sVundying will
p1889
F3.652173913043478
sVelytron set
p1890
F60.55555555555556
sVvelocitus set
p1891
F52.8
sVmeso c1 radiant
p1892
I59
sVfracturing wind
p1893
F13.972222222222221
sVarcane scorpion ash helmet
p1894
F38.5
sVmeso t2 intact
p1895
F2.837748344370861
sVargon plating
p1896
I3
sVbrief respite
p1897
F5.4417670682730925
sVvaykor hek
p1898
F34.02563189747241
sVaxi l1 intact
p1899
F22.172057502246183
sVanasa ayatan sculpture
p1900
F17.124730914123166
sVhelios prime cerebrum
p1901
F14.894164125311894
sVmeso d1 radiant
p1902
I17
sVmagma chamber
p1903
F114.43445692883896
sVlingering torment
p1904
I5
sVarcane tempo
p1905
F8.26266891891892
sVlarge murkray
p1906
F3.048660470202296
sVaxi a2 radiant
p1907
F15.703703703703704
sVscattered justice
p1908
F12.081512605042017
sVammo drum
p1909
F88012.14112149533
sVlith b2 radiant
p1910
I12
sVaxi l1 radiant
p1911
F34.94422310756972
sVaxi h1 radiant
p1912
I8
sVswooping falcon
p1913
F8.00903119868637
sVmeso v5 intact
p1914
F8.7
sVgalatine prime set
p1915
F24.420806396733582
sVneo z1 radiant
p1916
I14
sVlex prime receiver
p1917
F6.430633919681381
sVsmite infusion
p1918
F14.378787878787879
sVnebula bore
p1919
F6.2272727272727275
sVaxi l1 exceptional
p1920
I0
sVmeso f3 flawless
p1921
I0
sVchromatic blade
p1922
F13.963904738278343
sVhush
p1923
F4.363636363636363
sVgladiator rush
p1924
F2.9643962848297214
sVneo a1 radiant
p1925
I0
sVtarget acquired
p1926
F47.40774907749078
sVentropy spike
p1927
F2789.6666666666665
sVhigh noon
p1928
F6.930839002267573
sVgorgon wraith blueprint
p1929
F4.907494145199063
sVfocused acceleration
p1930
I10
sVzephyr prime set
p1931
F94.61366171003718
sVgleaming talon
p1932
F8.987132352941176
sVmeso s2 flawless
p1933
I0
sVaxi a3 intact
p1934
F8.130681818181818
sVaugur reach
p1935
F18.760332693538068
sVcyngas stock
p1936
F14.304807692307692
sVagkuza set
p1937
F57.916666666666664
sVtrue punishment
p1938
F5.276595744680851
sVarcane warmth
p1939
F5.321763602251407
sVsharpened claws
p1940
F3.8461538461538463
sVankyros prime blade
p1941
F60.45002956830278
sVdisarming purity
p1942
F13.015151515151516
sVneo b5 intact
p1943
F5.451612903225806
sVcoolant leak
p1944
F11.442424242424243
sVburston prime receiver
p1945
F1.8460634547591068
sVlock and load
p1946
F12.979452054794521
sVmeso z1 flawless
p1947
I0
sVfragor prime head
p1948
F4.680826636050517
sVshock trooper
p1949
F16.15963855421687
sVretribution
p1950
F3.8214285714285716
sVaxi b2 intact
p1951
F7.21875
sVvalkyr prime chassis
p1952
F45.558926841085274
sVlarge norg
p1953
F3.22970052485335
sVarmored agility
p1954
F3.814952638700947
sVmeso n1 radiant
p1955
I29
sVsense danger
p1956
F4.127906976744186
sVvenka prime blades
p1957
F2.04983498349835
sVtelos boltace
p1958
F44.671583383503915
sVarcane avalon excalibur helmet
p1959
F51.870588235294115
sVparis prime blueprint
p1960
F2.5251215559157214
sVpeculiar growth
p1961
F49.776315789473685
sVaxi k2 exceptional
p1962
I0
sVsharpened bullets
p1963
F5.711155378486056
sVneo m1 radiant
p1964
F7.315789473684211
sVnegate
p1965
F59.71844660194175
sVsmall charc eel
p1966
I1
sVplan b
p1967
I5
sVlatron prime set
p1968
F54.716422121896166
sVeidolon unairu lens
p1969
F80.1576354679803
sVlunaro arena scene
p1970
F99.8
sVember prime systems
p1971
F20.59328726554788
sVdeft tempo
p1972
I8
sVaxi v7 flawless
p1973
I0
sVstrafing slide
p1974
F13.444444444444445
sVatlantis vulcan
p1975
F4.4144542772861355
sVsmite corrupted
p1976
F20.68125
sVneo s4 intact
p1977
I0
sVshredder
p1978
F4.45
sVkronen prime blueprint
p1979
F7.633805134957209
sVghost
p1980
I4
sVsapping reach
p1981
I19
sVneo v1 radiant
p1982
F63.863157894736844
sVcomet rounds
p1983
I10
sVbrain storm (grakata)
p1984
F12.285714285714286
sVaxi a1 intact
p1985
F6.471014492753623
sVvital systems bypass
p1986
I9
sVmag prime set
p1987
F172.8919911012236
sVaxi a1 exceptional
p1988
I0
sVlith k1 radiant
p1989
I0
sVdual kamas prime blueprint
p1990
F3.8032646048109964
sVorta ayatan sculpture
p1991
F11.707214971681852
sVcritical delay
p1992
F4.662523900573614
sVaxi k1 flawless
p1993
I0
sVlua balcony scene
p1994
F5.90625
sVneo b2 exceptional
p1995
I0
sVseismic palm
p1996
F5.009090909090909
sVneo d1 exceptional
p1997
I0
sVspeed holster
p1998
F7.7387543252595155
sVtelos boltor
p1999
F43.75529542920847
sVcleanse corrupted
p2000
F17.91304347826087
sVmeso o1 intact
p2001
F2.5555555555555554
sVneo v3 radiant
p2002
I20
sVarcane flux nova helmet
p2003
F48.175824175824175
sVammo stock
p2004
F7.908045977011494
sVmeso k1 exceptional
p2005
I0
sVtoxin resistance
p2006
F4.145833333333333
sVorgan shatter
p2007
F6.193333333333333
sVaxi a3 flawless
p2008
I0
sVaxi k2 intact
p2009
F9.269512195121951
sVtoxic barrage
p2010
F7.653899721448468
sVmeso h1 exceptional
p2011
I0
sVmeso v4 intact
p2012
I13
sVzephyr prime blueprint
p2013
F20.578464646464646
sVneo b3 intact
p2014
F15.657608695652174
sVmeso f3 exceptional
p2015
I0
sVfrost prime set
p2016
F149.10622605363986
sVfateful truth
p2017
F14.0
sVhall of malevolence
p2018
F14.954491017964072
sVsundering strike
p2019
F3.9328358208955225
sVtrinity prime set
p2020
F89.9660210479176
sVfragor prime handle
p2021
F8.013149655604257
sVcalculated victory
p2022
F21.0
sVarcane chlora saryn helmet
p2023
F72.19101123595506
sVorthos prime handle
p2024
F3.4277047522750252
sVvulkar wraith
p2025
F108.31537019681349
sVgladiator finesse
p2026
F9.868080094228505
sVfirestorm
p2027
F3.475975975975976
sVsecura lecta
p2028
F43.86130284728214
s.